(dp1
S'canto_version'
p2
(I0
I7
I10
tp3
sS'entries'
p4
(lp5
(dp6
Vtitle
p7
VNo content.
p8
sVcanto_state
p9
(lp10
S'http://codezen.org/canto/feeds/latest'
p11
asVid
p12
Vcanto-internal
p13
sVdescription
p14
VThere's no content in this feed. It's possible that it hasn't been fetched yet or an error was encountered. Check your fetchlog.
p15
sasS'canto_state'
p16
(lp17
sS'canto_update'
p18
I0
s.