ccopy_reg
_reconstructor
p1
(cfeedparser
FeedParserDict
p2
c__builtin__
dict
p3
(dp4
S'feed'
p5
g1
(g2
g3
(dp6
S'title_detail'
p7
g1
(g2
g3
(dp8
S'base'
p9
Vhttp://www.reddit.com/.rss
p10
sS'type'
p11
Vtext/plain
p12
sS'language'
p13
NsS'value'
p14
Vreddit: the front page of the internet
p15
stRp16
sS'subtitle'
p17
V
sS'links'
p18
(lp19
g1
(g2
g3
(dp20
S'href'
p21
Vhttp://www.reddit.com/
p22
sg11
Vtext/html
p23
sS'rel'
p24
Valternate
p25
stRp26
ag1
(g2
g3
(dp27
S'href'
p28
Vhttp://www.reddit.com/.rss
p29
sS'type'
p30
Vapplication/rss+xml
p31
sS'rel'
p32
Vself
p33
stRp34
asS'title'
p35
g15
sS'link'
p36
g22
sS'image'
p37
g1
(g2
g3
(dp38
S'title_detail'
p39
g1
(g2
g3
(dp40
g9
Vhttp://www.reddit.com/.rss
p41
sg11
g12
sg13
Nsg14
Vreddit: the front page of the internet
p42
stRp43
sg21
Vhttp://www.reddit.com/reddit.com.header.png
p44
sg36
Vhttp://www.reddit.com/
p45
sg18
(lp46
g1
(g2
g3
(dp47
g21
g45
sg11
g23
sg24
g25
stRp48
asg35
g42
stRp49
sS'subtitle_detail'
p50
g1
(g2
g3
(dp51
g9
Vhttp://www.reddit.com/.rss
p52
sg11
Vtext/html
p53
sg13
Nsg14
V
stRp54
stRp55
sS'status'
p56
I200
sS'encoding'
p57
VUTF-8
p58
sS'bozo'
p59
I0
sS'entries'
p60
(lp61
g1
(g2
g3
(dp62
S'summary_detail'
p63
g1
(g2
g3
(dp64
g9
Vhttp://www.reddit.com/.rss
p65
sg11
g53
sg13
Nsg14
Vsubmitted by <a href="http://www.reddit.com/user/selizala"> selizala </a> to <a href="http://www.reddit.com/r/funny/"> funny</a> <br /> <a href="http://imgur.com/Dg55Joq">[link]</a> <a href="http://www.reddit.com/r/funny/comments/360bzt/i_dont_think_his_parents_will_be_framing_his_team/">[938 comments]</a>
p66
stRp67
sg18
(lp68
g1
(g2
g3
(dp69
g21
Vhttp://www.reddit.com/r/funny/comments/360bzt/i_dont_think_his_parents_will_be_framing_his_team/
p70
sg11
g23
sg24
g25
stRp71
asS'published_parsed'
p72
ctime
struct_time
p73
((I2015
I5
I15
I0
I45
I22
I4
I135
I0
t(dtRp74
sS'tags'
p75
(lp76
g1
(g2
g3
(dp77
S'term'
p78
Vfunny
p79
sS'scheme'
p80
NsS'label'
p81
NstRp82
asg35
VI Don't Think His Parents Will Be Framing His Team Photo This Year...
p83
sS'summary'
p84
g66
sS'guidislink'
p85
I00
sS'title_detail'
p86
g1
(g2
g3
(dp87
g9
Vhttp://www.reddit.com/.rss
p88
sg11
g12
sg13
Nsg14
g83
stRp89
sg36
g70
sS'published'
p90
VFri, 15 May 2015 00:45:22 +0000
p91
sS'canto_state'
p92
(lp93
Vreddit: the front page of the internet
p94
aV*
asS'id'
p95
Vhttp://www.reddit.com/r/funny/comments/360bzt/i_dont_think_his_parents_will_be_framing_his_team/
p96
stRp97
ag1
(g2
g3
(dp98
S'summary_detail'
p99
g1
(g2
g3
(dp100
g9
Vhttp://www.reddit.com/.rss
p101
sg11
g53
sg13
Nsg14
V<table> <tr><td> <a href="http://www.reddit.com/r/videos/comments/35zyku/rick_and_morty_visit_the_simpsons_couch_gag_from/"><img alt="Rick and Morty Visit the Simpsons | Couch Gag from &quot;Mathlete's Feat&quot;" src="http://b.thumbs.redditmedia.com/C_0yS6OZEEHFOX2k0OvHGqhtCKUUNCu1NrWw7p69i4A.jpg" title="Rick and Morty Visit the Simpsons | Couch Gag from &quot;Mathlete's Feat&quot;" /></a> </td><td> submitted by <a href="http://www.reddit.com/user/Outsideerr"> Outsideerr </a> to <a href="http://www.reddit.com/r/videos/"> videos</a> <br /> <a href="https://www.youtube.com/watch?feature=youtu.be&amp;short_code=2zsxq&amp;v=DM-PhxdRN8M">[link]</a> <a href="http://www.reddit.com/r/videos/comments/35zyku/rick_and_morty_visit_the_simpsons_couch_gag_from/">[762 comments]</a> </td></tr></table>
p102
stRp103
sg18
(lp104
g1
(g2
g3
(dp105
g21
Vhttp://www.reddit.com/r/videos/comments/35zyku/rick_and_morty_visit_the_simpsons_couch_gag_from/
p106
sg11
g23
sg24
g25
stRp107
asg72
g73
((I2015
I5
I14
I22
I47
I0
I3
I134
I0
t(dtRp108
sg75
(lp109
g1
(g2
g3
(dp110
g78
Vvideos
p111
sg80
Nsg81
NstRp112
asg35
VRick and Morty Visit the Simpsons | Couch Gag from "Mathlete's Feat"
p113
sS'media_thumbnail'
p114
(lp115
(dp116
S'url'
p117
Vhttp://b.thumbs.redditmedia.com/C_0yS6OZEEHFOX2k0OvHGqhtCKUUNCu1NrWw7p69i4A.jpg
p118
sasg84
g102
sg85
I00
sS'title_detail'
p119
g1
(g2
g3
(dp120
g9
Vhttp://www.reddit.com/.rss
p121
sg11
g12
sg13
Nsg14
g113
stRp122
sg21
V
sg36
g106
sg90
VThu, 14 May 2015 22:47:00 +0000
p123
sg92
(lp124
g94
aV*
asg95
Vhttp://www.reddit.com/r/videos/comments/35zyku/rick_and_morty_visit_the_simpsons_couch_gag_from/
p125
stRp126
ag1
(g2
g3
(dp127
S'summary_detail'
p128
g1
(g2
g3
(dp129
g9
Vhttp://www.reddit.com/.rss
p130
sg11
g53
sg13
Nsg14
V<table> <tr><td> <a href="http://www.reddit.com/r/gaming/comments/35zv3m/wolfenstein_shows_the_origin_of_grammar_nazi/"><img alt="Wolfenstein shows the origin of &quot;Grammar Nazi&quot;" src="http://b.thumbs.redditmedia.com/xwddXtomEkNN5crhqwYlb_bguncUdHCXFC-W5oqtGbI.jpg" title="Wolfenstein shows the origin of &quot;Grammar Nazi&quot;" /></a> </td><td> submitted by <a href="http://www.reddit.com/user/dnarevolutions"> dnarevolutions </a> to <a href="http://www.reddit.com/r/gaming/"> gaming</a> <br /> <a href="http://imgur.com/a/8s7Rh">[link]</a> <a href="http://www.reddit.com/r/gaming/comments/35zv3m/wolfenstein_shows_the_origin_of_grammar_nazi/">[543 comments]</a> </td></tr></table>
p131
stRp132
sg18
(lp133
g1
(g2
g3
(dp134
g21
Vhttp://www.reddit.com/r/gaming/comments/35zv3m/wolfenstein_shows_the_origin_of_grammar_nazi/
p135
sg11
g23
sg24
g25
stRp136
asg72
g73
((I2015
I5
I14
I22
I18
I33
I3
I134
I0
t(dtRp137
sg75
(lp138
g1
(g2
g3
(dp139
g78
Vgaming
p140
sg80
Nsg81
NstRp141
asg35
VWolfenstein shows the origin of "Grammar Nazi"
p142
sg114
(lp143
(dp144
S'url'
p145
Vhttp://b.thumbs.redditmedia.com/xwddXtomEkNN5crhqwYlb_bguncUdHCXFC-W5oqtGbI.jpg
p146
sasg84
g131
sg85
I00
sS'title_detail'
p147
g1
(g2
g3
(dp148
g9
Vhttp://www.reddit.com/.rss
p149
sg11
g12
sg13
Nsg14
g142
stRp150
sg21
V
sg36
g135
sg90
VThu, 14 May 2015 22:18:33 +0000
p151
sg92
(lp152
g94
aV*
asg95
Vhttp://www.reddit.com/r/gaming/comments/35zv3m/wolfenstein_shows_the_origin_of_grammar_nazi/
p153
stRp154
ag1
(g2
g3
(dp155
S'summary_detail'
p156
g1
(g2
g3
(dp157
g9
Vhttp://www.reddit.com/.rss
p158
sg11
g53
sg13
Nsg14
V<table> <tr><td> <a href="http://www.reddit.com/r/todayilearned/comments/35zs0j/til_that_if_momma_did_buy_me_a_mockingbird_she/"><img alt="TIL that if momma did 'buy me a Mockingbird' she would be violating the Migratory Bird Treaty Act of 1918, and would be subject to a fine of up to $500 and/or jail for up to six months." src="http://b.thumbs.redditmedia.com/2qoL9o7u0WZymyb7vak6DfQW04GElnppzFXiQ_kydro.jpg" title="TIL that if momma did 'buy me a Mockingbird' she would be violating the Migratory Bird Treaty Act of 1918, and would be subject to a fine of up to $500 and/or jail for up to six months." /></a> </td><td> submitted by <a href="http://www.reddit.com/user/LomionJones"> LomionJones </a> to <a href="http://www.reddit.com/r/todayilearned/"> todayilearned</a> <br /> <a href="http://en.wikipedia.org/wiki/Migratory_Bird_Treaty_Act_of_1918#Partial_listing_of_covered_species">[link]</a> <a href="http://www.reddit.com/r/todayilearned/comments/35zs0j/til_that_if_momma_did_buy_me_a_mockingbird_she/">[464 comments]</a> </td></tr></table>
p159
stRp160
sg18
(lp161
g1
(g2
g3
(dp162
g21
Vhttp://www.reddit.com/r/todayilearned/comments/35zs0j/til_that_if_momma_did_buy_me_a_mockingbird_she/
p163
sg11
g23
sg24
g25
stRp164
asg72
g73
((I2015
I5
I14
I21
I53
I58
I3
I134
I0
t(dtRp165
sg75
(lp166
g1
(g2
g3
(dp167
g78
Vtodayilearned
p168
sg80
Nsg81
NstRp169
asg35
VTIL that if momma did 'buy me a Mockingbird' she would be violating the Migratory Bird Treaty Act of 1918, and would be subject to a fine of up to $500 and/or jail for up to six months.
p170
sg114
(lp171
(dp172
S'url'
p173
Vhttp://b.thumbs.redditmedia.com/2qoL9o7u0WZymyb7vak6DfQW04GElnppzFXiQ_kydro.jpg
p174
sasg84
g159
sg85
I00
sS'title_detail'
p175
g1
(g2
g3
(dp176
g9
Vhttp://www.reddit.com/.rss
p177
sg11
g12
sg13
Nsg14
g170
stRp178
sg21
V
sg36
g163
sg90
VThu, 14 May 2015 21:53:58 +0000
p179
sg92
(lp180
g94
aV*
asg95
Vhttp://www.reddit.com/r/todayilearned/comments/35zs0j/til_that_if_momma_did_buy_me_a_mockingbird_she/
p181
stRp182
ag1
(g2
g3
(dp183
S'summary_detail'
p184
g1
(g2
g3
(dp185
g9
Vhttp://www.reddit.com/.rss
p186
sg11
g53
sg13
Nsg14
V<table> <tr><td> <a href="http://www.reddit.com/r/pics/comments/35z7w7/maybe_we_should_play_inside_today/"><img alt="Maybe we should play inside today" src="http://b.thumbs.redditmedia.com/JJP4obsRBGniQKAK9dokROoh7QhK7DLwtpQ11S5USSU.jpg" title="Maybe we should play inside today" /></a> </td><td> submitted by <a href="http://www.reddit.com/user/LurkerMcLurkerton"> LurkerMcLurkerton </a> to <a href="http://www.reddit.com/r/pics/"> pics</a> <br /> <a href="http://i.imgur.com/gyn49gh.jpg">[link]</a> <a href="http://www.reddit.com/r/pics/comments/35z7w7/maybe_we_should_play_inside_today/">[1109 comments]</a> </td></tr></table>
p187
stRp188
sg18
(lp189
g1
(g2
g3
(dp190
g21
Vhttp://www.reddit.com/r/pics/comments/35z7w7/maybe_we_should_play_inside_today/
p191
sg11
g23
sg24
g25
stRp192
asg72
g73
((I2015
I5
I14
I19
I21
I12
I3
I134
I0
t(dtRp193
sg75
(lp194
g1
(g2
g3
(dp195
g78
Vpics
p196
sg80
Nsg81
NstRp197
asg35
VMaybe we should play inside today
p198
sg114
(lp199
(dp200
S'url'
p201
Vhttp://b.thumbs.redditmedia.com/JJP4obsRBGniQKAK9dokROoh7QhK7DLwtpQ11S5USSU.jpg
p202
sasg84
g187
sg85
I00
sS'title_detail'
p203
g1
(g2
g3
(dp204
g9
Vhttp://www.reddit.com/.rss
p205
sg11
g12
sg13
Nsg14
g198
stRp206
sg21
V
sg36
g191
sg90
VThu, 14 May 2015 19:21:12 +0000
p207
sg92
(lp208
g94
aV*
asg95
Vhttp://www.reddit.com/r/pics/comments/35z7w7/maybe_we_should_play_inside_today/
p209
stRp210
ag1
(g2
g3
(dp211
S'summary_detail'
p212
g1
(g2
g3
(dp213
g9
Vhttp://www.reddit.com/.rss
p214
sg11
g53
sg13
Nsg14
V<table> <tr><td> <a href="http://www.reddit.com/r/gifs/comments/35zgco/how_earthquakes_cause_tsunamis/"><img alt="How earthquakes cause tsunamis." src="http://b.thumbs.redditmedia.com/xRxlXOv4GSeeq7R9Wzt4CyMWJ6_YdtKbloxCBNIKHxM.jpg" title="How earthquakes cause tsunamis." /></a> </td><td> submitted by <a href="http://www.reddit.com/user/hcbaron"> hcbaron </a> to <a href="http://www.reddit.com/r/gifs/"> gifs</a> <br /> <a href="http://i.imgur.com/3oRUSgv.gifv">[link]</a> <a href="http://www.reddit.com/r/gifs/comments/35zgco/how_earthquakes_cause_tsunamis/">[293 comments]</a> </td></tr></table>
p215
stRp216
sg18
(lp217
g1
(g2
g3
(dp218
g21
Vhttp://www.reddit.com/r/gifs/comments/35zgco/how_earthquakes_cause_tsunamis/
p219
sg11
g23
sg24
g25
stRp220
asg72
g73
((I2015
I5
I14
I20
I26
I6
I3
I134
I0
t(dtRp221
sg75
(lp222
g1
(g2
g3
(dp223
g78
Vgifs
p224
sg80
Nsg81
NstRp225
asg35
VHow earthquakes cause tsunamis.
p226
sg114
(lp227
(dp228
S'url'
p229
Vhttp://b.thumbs.redditmedia.com/xRxlXOv4GSeeq7R9Wzt4CyMWJ6_YdtKbloxCBNIKHxM.jpg
p230
sasg84
g215
sg85
I00
sS'title_detail'
p231
g1
(g2
g3
(dp232
g9
Vhttp://www.reddit.com/.rss
p233
sg11
g12
sg13
Nsg14
g226
stRp234
sg21
V
sg36
g219
sg90
VThu, 14 May 2015 20:26:06 +0000
p235
sg92
(lp236
g94
aV*
asg95
Vhttp://www.reddit.com/r/gifs/comments/35zgco/how_earthquakes_cause_tsunamis/
p237
stRp238
ag1
(g2
g3
(dp239
S'summary_detail'
p240
g1
(g2
g3
(dp241
g9
Vhttp://www.reddit.com/.rss
p242
sg11
g53
sg13
Nsg14
V<table> <tr><td> <a href="http://www.reddit.com/r/mildlyinteresting/comments/35zmsy/i_saw_a_bus_stop_pull_up_at_a_bus_stop/"><img alt="I saw a bus stop pull up at a bus stop" src="http://b.thumbs.redditmedia.com/tzR6T7e0sResntVKPC_JDYmByL1eKfAaa7wakNSvXpY.jpg" title="I saw a bus stop pull up at a bus stop" /></a> </td><td> submitted by <a href="http://www.reddit.com/user/critter_chaos"> critter_chaos </a> to <a href="http://www.reddit.com/r/mildlyinteresting/"> mildlyinteresting</a> <br /> <a href="http://imgur.com/Cxfr0m9">[link]</a> <a href="http://www.reddit.com/r/mildlyinteresting/comments/35zmsy/i_saw_a_bus_stop_pull_up_at_a_bus_stop/">[78 comments]</a> </td></tr></table>
p243
stRp244
sg18
(lp245
g1
(g2
g3
(dp246
g21
Vhttp://www.reddit.com/r/mildlyinteresting/comments/35zmsy/i_saw_a_bus_stop_pull_up_at_a_bus_stop/
p247
sg11
g23
sg24
g25
stRp248
asg72
g73
((I2015
I5
I14
I21
I12
I52
I3
I134
I0
t(dtRp249
sg75
(lp250
g1
(g2
g3
(dp251
g78
Vmildlyinteresting
p252
sg80
Nsg81
NstRp253
asg35
VI saw a bus stop pull up at a bus stop
p254
sg114
(lp255
(dp256
S'url'
p257
Vhttp://b.thumbs.redditmedia.com/tzR6T7e0sResntVKPC_JDYmByL1eKfAaa7wakNSvXpY.jpg
p258
sasg84
g243
sg85
I00
sS'title_detail'
p259
g1
(g2
g3
(dp260
g9
Vhttp://www.reddit.com/.rss
p261
sg11
g12
sg13
Nsg14
g254
stRp262
sg21
V
sg36
g247
sg90
VThu, 14 May 2015 21:12:52 +0000
p263
sg92
(lp264
g94
aV*
asg95
Vhttp://www.reddit.com/r/mildlyinteresting/comments/35zmsy/i_saw_a_bus_stop_pull_up_at_a_bus_stop/
p265
stRp266
ag1
(g2
g3
(dp267
S'summary_detail'
p268
g1
(g2
g3
(dp269
g9
Vhttp://www.reddit.com/.rss
p270
sg11
g53
sg13
Nsg14
Vsubmitted by <a href="http://www.reddit.com/user/to_nourish"> to_nourish </a> to <a href="http://www.reddit.com/r/science/"> science</a> <br /> <a href="http://news.discovery.com/animals/first-warm-blooded-fish-identified-150514.htm">[link]</a> <a href="http://www.reddit.com/r/science/comments/35z0uo/first_warmblooded_fish_identified/">[448 comments]</a>
p271
stRp272
sg18
(lp273
g1
(g2
g3
(dp274
g21
Vhttp://www.reddit.com/r/science/comments/35z0uo/first_warmblooded_fish_identified/
p275
sg11
g23
sg24
g25
stRp276
asg72
g73
((I2015
I5
I14
I18
I25
I53
I3
I134
I0
t(dtRp277
sg75
(lp278
g1
(g2
g3
(dp279
g78
Vscience
p280
sg80
Nsg81
NstRp281
asg35
VFirst Warm-Blooded Fish Identified
p282
sg84
g271
sg85
I00
sS'title_detail'
p283
g1
(g2
g3
(dp284
g9
Vhttp://www.reddit.com/.rss
p285
sg11
g12
sg13
Nsg14
g282
stRp286
sg36
g275
sg90
VThu, 14 May 2015 18:25:53 +0000
p287
sg92
(lp288
g94
aV*
asg95
Vhttp://www.reddit.com/r/science/comments/35z0uo/first_warmblooded_fish_identified/
p289
stRp290
ag1
(g2
g3
(dp291
S'summary_detail'
p292
g1
(g2
g3
(dp293
g9
Vhttp://www.reddit.com/.rss
p294
sg11
g53
sg13
Nsg14
V<table> <tr><td> <a href="http://www.reddit.com/r/aww/comments/35z5ag/rabbit_enjoying_his_milk/"><img alt="Rabbit enjoying his milk" src="http://a.thumbs.redditmedia.com/VIFMYmpeMdLTU-UtpmKpJVisIInh5xwb-t0l4MouEG4.jpg" title="Rabbit enjoying his milk" /></a> </td><td> submitted by <a href="http://www.reddit.com/user/1Voice1Life"> 1Voice1Life </a> to <a href="http://www.reddit.com/r/aww/"> aww</a> <br /> <a href="http://i.imgur.com/3I5jSEY.gifv">[link]</a> <a href="http://www.reddit.com/r/aww/comments/35z5ag/rabbit_enjoying_his_milk/">[177 comments]</a> </td></tr></table>
p295
stRp296
sg18
(lp297
g1
(g2
g3
(dp298
g21
Vhttp://www.reddit.com/r/aww/comments/35z5ag/rabbit_enjoying_his_milk/
p299
sg11
g23
sg24
g25
stRp300
asg72
g73
((I2015
I5
I14
I19
I0
I59
I3
I134
I0
t(dtRp301
sg75
(lp302
g1
(g2
g3
(dp303
g78
Vaww
p304
sg80
Nsg81
NstRp305
asg35
VRabbit enjoying his milk
p306
sg114
(lp307
(dp308
S'url'
p309
Vhttp://a.thumbs.redditmedia.com/VIFMYmpeMdLTU-UtpmKpJVisIInh5xwb-t0l4MouEG4.jpg
p310
sasg84
g295
sg85
I00
sS'title_detail'
p311
g1
(g2
g3
(dp312
g9
Vhttp://www.reddit.com/.rss
p313
sg11
g12
sg13
Nsg14
g306
stRp314
sg21
V
sg36
g299
sg90
VThu, 14 May 2015 19:00:59 +0000
p315
sg92
(lp316
g94
aV*
asg95
Vhttp://www.reddit.com/r/aww/comments/35z5ag/rabbit_enjoying_his_milk/
p317
stRp318
ag1
(g2
g3
(dp319
S'summary_detail'
p320
g1
(g2
g3
(dp321
g9
Vhttp://www.reddit.com/.rss
p322
sg11
g53
sg13
Nsg14
Vsubmitted by <a href="http://www.reddit.com/user/toreadx"> toreadx </a> to <a href="http://www.reddit.com/r/worldnews/"> worldnews</a> <br /> <a href="http://www.bbc.com/news/world-middle-east-32744070">[link]</a> <a href="http://www.reddit.com/r/worldnews/comments/360gc5/isis_leader_baghdadi_says_islam_was_never_a/">[550 comments]</a>
p323
stRp324
sg18
(lp325
g1
(g2
g3
(dp326
g21
Vhttp://www.reddit.com/r/worldnews/comments/360gc5/isis_leader_baghdadi_says_islam_was_never_a/
p327
sg11
g23
sg24
g25
stRp328
asg72
g73
((I2015
I5
I15
I1
I24
I10
I4
I135
I0
t(dtRp329
sg75
(lp330
g1
(g2
g3
(dp331
g78
Vworldnews
p332
sg80
Nsg81
NstRp333
asg35
VISIS leader, Baghdadi, says "Islam was never a religion of peace. Islam is the religion of fighting. It is the war of Muslims against infidels."
p334
sg84
g323
sg85
I00
sS'title_detail'
p335
g1
(g2
g3
(dp336
g9
Vhttp://www.reddit.com/.rss
p337
sg11
g12
sg13
Nsg14
g334
stRp338
sg36
g327
sg90
VFri, 15 May 2015 01:24:10 +0000
p339
sg92
(lp340
g94
aV*
asg95
Vhttp://www.reddit.com/r/worldnews/comments/360gc5/isis_leader_baghdadi_says_islam_was_never_a/
p341
stRp342
ag1
(g2
g3
(dp343
S'summary_detail'
p344
g1
(g2
g3
(dp345
g9
Vhttp://www.reddit.com/.rss
p346
sg11
g53
sg13
Nsg14
V<!-- SC_OFF --><div class="md"><p>I've talked about this before on Reddit, but I felt like I needed to talk about it again since the <a href="http://www.huffingtonpost.com/2015/05/13/20-week-abortion-ban_n_7274874.html">House of Representatives passed a 20-week abortion ban yesterday</a>. This bill is unlikely to pass the Senate (and if it does, it'll be vetoed by Obama) - but this type of legislation is passing at the state level across the US, and I fear that it will someday pass at the federal level as well. </p> <p>While I am personally opposed to <em>any</em> type of abortion limits based on # of weeks - this ban has a major flaw in that it has NO exceptions for fetal anomalies, even when they are severe or fatal. Most of these abnormalities aren't caught until the standard 20-week anatomy ultrasound (in my case, it was found much later, and I didn't make my decision until we had exhausted all options to save him... it's a long story). 80-90% of families carrying a pregnancy with a severe or fatal diagnosis choose to terminate. A ban like this means that the majority of those families will be FORCED to carry a baby with <em>no chance at life</em> to term. Let me explain exactly what that means.</p> <p>In my case, my baby had a lower urinary tract blockage called Posterior Urethral Valve. In layman's terms, his urethra didn't form properly so he couldn't urinate out the amniotic fluid that he drank in. The fluid backed up into his kidneys, causing them to completely fail. His right kidney was so enlarged with fluid that it was pushing on his heart and lungs. As time progressed I no longer had amniotic fluid. Without fluid, his lungs had no chance of developing. </p> <p>If I had carried the pregnancy to term, as this bill would have forced me to do - he would most likely have been born alive, only to suffocate to death within minutes. I would have had to watch my newborn baby that I loved so much gasp for breath, turn blue, and die in my arms. Instead, at 27 weeks he was given an injection through my uterus that stopped his heart. I then was induced into labor and delivered him stillborn 24 hours later. He did not feel ANY pain, except maybe the poke of the needle (although that's debatable). It sounds a bit harsh to say, but it's the same injection that they use to euthanize pets - and if any of you have had to go through that, you know that they usually pass peacefully and quietly.</p> <p>Instead of allowing me to give my son a dignified, quick and painless death, bills like these would force people like me to watch their babies suffer and slowly die. When representatives vote for legislation like this under the pretense of &quot;sparing babies pain&quot; (this bill is called the &quot;Pain-Capable Unborn Child Protection Act&quot; - what a fucking joke), they are literally telling me that my baby <em>suffocating to death</em> isn't painful and getting a potassium chloride injection is. They are telling me that <em>they</em> know better than my doctor and I do, and <em>they</em> get to choose how and when my baby dies. </p> <p>Before I went through all of this, I didn't quite grasp why abortion term limits could be so hurtful. I didn't support them, but I thought &quot;by X number of weeks, wouldn't you know that you wanted an abortion?&quot;. But I never thought about women who didn't find out about problems until late in pregnancy. I never considered that abortion could be an end-of-life issue. Something like 98% of abortions are performed before 20 weeks anyway. There aren't any statistics on how many late-term abortions are performed because of fatal birth defects, but I would guess that it's a very large chunk of them. But somehow we are left out of the conversation. I hope that reading this can help somebody truly think about what these term limits mean.</p> <p><strong>I had an abortion to spare my son from feeling pain. This bill is not a &quot;Child Protection Act&quot;. It's an infringement on my right as a parent to protect my own child from a painful death.</strong></p> <p>Edit: I'd also like to say that I don't check private messages on this account (because trolls) so please contact me in the comments. </p> <p>Edit #2: I would like to clarify one misconception that I've seen in some comments (and all around the Internet, really). The term &quot;abortion&quot; does NOT exclusively mean a D&amp;C (dilation and curretage, where they dilate the cervix and surgically remove the fetus). Even inducing labor early is considered an abortion when it's done with the intention/knowledge that the fetus will not survive. It doesn't even have to include the KCL injection to stop the heart. I think sometimes when people hear &quot;abortion&quot; they visualize those graphic bloody images that some pro-lifers put on signs, or they hear people say the phrase &quot;torn from the womb&quot; or &quot;partial-birth abortion&quot; or whatever. But even an induced labor that's done early or with the intent of withholding medical intervention afterward is technically an abortion under many of these laws.</p> <p>Here is the relevant text of the bill (you can read the whole thing <a href="http://thomas.loc.gov/cgi-bin/query/z?c114:H.R.36:">here</a> - thanks <a href="http://www.reddit.com/u/crossinggarter">/u/crossinggarter</a>):</p> <blockquote> <p>\u201c(1) ABORTION.\u2014The term \u2018abortion\u2019 means the use or prescription of any instrument, medicine, drug, or any other substance or device\u2014</p> <p>&quot;(A) to intentionally kill the unborn child of a woman known to be pregnant; or</p> <p>\u201c(B) to intentionally terminate the pregnancy of a woman known to be pregnant, with an intention other than\u2014</p> <p>\u201c(i) after viability to produce a live birth and preserve the life and health of the child born alive; or</p> <p>\u201c(ii) to remove a dead unborn child.</p> </blockquote> </div><!-- SC_ON --> submitted by <a href="http://www.reddit.com/user/dividefallapart"> dividefallapart </a> to <a href="http://www.reddit.com/r/TwoXChromosomes/"> TwoXChromosomes</a> <br /> <a href="http://www.reddit.com/r/TwoXChromosomes/comments/35zghk/i_had_an_abortion_at_27_weeks_the_house_20week/">[link]</a> <a href="http://www.reddit.com/r/TwoXChromosomes/comments/35zghk/i_had_an_abortion_at_27_weeks_the_house_20week/">[1263 comments]</a>
p347
stRp348
sg18
(lp349
g1
(g2
g3
(dp350
g21
Vhttp://www.reddit.com/r/TwoXChromosomes/comments/35zghk/i_had_an_abortion_at_27_weeks_the_house_20week/
p351
sg11
g23
sg24
g25
stRp352
asg72
g73
((I2015
I5
I14
I20
I26
I59
I3
I134
I0
t(dtRp353
sg75
(lp354
g1
(g2
g3
(dp355
g78
VTwoXChromosomes
p356
sg80
Nsg81
NstRp357
asg35
VI had an abortion at 27 weeks. The House 20-week abortion bill feels like a slap in the face.
p358
sg84
V<!-- SC_OFF --><div class="md"><p>I've talked about this before on Reddit, but I felt like I needed to talk about it again since the <a href="http://www.huffingtonpost.com/2015/05/13/20-week-abortion-ban_n_7274874.html">House of Representatives passed a 20-week abortion ban yesterday</a>. This bill is unlikely to pass the Senate (and if it does, it'll be vetoed by Obama) - but this type of legislation is passing at the state level across the US, and I fear that it will someday pass at the federal level as well. </p> <p>While I am personally opposed to <em>any</em> type of abortion limits based on # of weeks - this ban has a major flaw in that it has NO exceptions for fetal anomalies, even when they are severe or fatal. Most of these abnormalities aren't caught until the standard 20-week anatomy ultrasound (in my case, it was found much later, and I didn't make my decision until we had exhausted all options to save him... it's a long story). 80-90\u005c% of families carrying a pregnancy with a severe or fatal diagnosis choose to terminate. A ban like this means that the majority of those families will be FORCED to carry a baby with <em>no chance at life</em> to term. Let me explain exactly what that means.</p> <p>In my case, my baby had a lower urinary tract blockage called Posterior Urethral Valve. In layman's terms, his urethra didn't form properly so he couldn't urinate out the amniotic fluid that he drank in. The fluid backed up into his kidneys, causing them to completely fail. His right kidney was so enlarged with fluid that it was pushing on his heart and lungs. As time progressed I no longer had amniotic fluid. Without fluid, his lungs had no chance of developing. </p> <p>If I had carried the pregnancy to term, as this bill would have forced me to do - he would most likely have been born alive, only to suffocate to death within minutes. I would have had to watch my newborn baby that I loved so much gasp for breath, turn blue, and die in my arms. Instead, at 27 weeks he was given an injection through my uterus that stopped his heart. I then was induced into labor and delivered him stillborn 24 hours later. He did not feel ANY pain, except maybe the poke of the needle (although that's debatable). It sounds a bit harsh to say, but it's the same injection that they use to euthanize pets - and if any of you have had to go through that, you know that they usually pass peacefully and quietly.</p> <p>Instead of allowing me to give my son a dignified, quick and painless death, bills like these would force people like me to watch their babies suffer and slowly die. When representatives vote for legislation like this under the pretense of &quot;sparing babies pain&quot; (this bill is called the &quot;Pain-Capable Unborn Child Protection Act&quot; - what a fucking joke), they are literally telling me that my baby <em>suffocating to death</em> isn't painful and getting a potassium chloride injection is. They are telling me that <em>they</em> know better than my doctor and I do, and <em>they</em> get to choose how and when my baby dies. </p> <p>Before I went through all of this, I didn't quite grasp why abortion term limits could be so hurtful. I didn't support them, but I thought &quot;by X number of weeks, wouldn't you know that you wanted an abortion?&quot;. But I never thought about women who didn't find out about problems until late in pregnancy. I never considered that abortion could be an end-of-life issue. Something like 98\u005c% of abortions are performed before 20 weeks anyway. There aren't any statistics on how many late-term abortions are performed because of fatal birth defects, but I would guess that it's a very large chunk of them. But somehow we are left out of the conversation. I hope that reading this can help somebody truly think about what these term limits mean.</p> <p><strong>I had an abortion to spare my son from feeling pain. This bill is not a &quot;Child Protection Act&quot;. It's an infringement on my right as a parent to protect my own child from a painful death.</strong></p> <p>Edit: I'd also like to say that I don't check private messages on this account (because trolls) so please contact me in the comments. </p> <p>Edit #2: I would like to clarify one misconception that I've seen in some comments (and all around the Internet, really). The term &quot;abortion&quot; does NOT exclusively mean a D&amp;C (dilation and curretage, where they dilate the cervix and surgically remove the fetus). Even inducing labor early is considered an abortion when it's done with the intention/knowledge that the fetus will not survive. It doesn't even have to include the KCL injection to stop the heart. I think sometimes when people hear &quot;abortion&quot; they visualize those graphic bloody images that some pro-lifers put on signs, or they hear people say the phrase &quot;torn from the womb&quot; or &quot;partial-birth abortion&quot; or whatever. But even an induced labor that's done early or with the intent of withholding medical intervention afterward is technically an abortion under many of these laws.</p> <p>Here is the relevant text of the bill (you can read the whole thing <a href="http://thomas.loc.gov/cgi-bin/query/z?c114:H.R.36:">here</a> - thanks <a href="http://www.reddit.com/u/crossinggarter">/u/crossinggarter</a>):</p> <blockquote> <p>\u201c(1) ABORTION.\u2014The term \u2018abortion\u2019 means the use or prescription of any instrument, medicine, drug, or any other substance or device\u2014</p> <p>&quot;(A) to intentionally kill the unborn child of a woman known to be pregnant; or</p> <p>\u201c(B) to intentionally terminate the pregnancy of a woman known to be pregnant, with an intention other than\u2014</p> <p>\u201c(i) after viability to produce a live birth and preserve the life and health of the child born alive; or</p> <p>\u201c(ii) to remove a dead unborn child.</p> </blockquote> </div><!-- SC_ON --> submitted by <a href="http://www.reddit.com/user/dividefallapart"> dividefallapart </a> to <a href="http://www.reddit.com/r/TwoXChromosomes/"> TwoXChromosomes</a> <br /> <a href="http://www.reddit.com/r/TwoXChromosomes/comments/35zghk/i_had_an_abortion_at_27_weeks_the_house_20week/">[link]</a> <a href="http://www.reddit.com/r/TwoXChromosomes/comments/35zghk/i_had_an_abortion_at_27_weeks_the_house_20week/">[1263 comments]</a>
p359
sg85
I00
sS'title_detail'
p360
g1
(g2
g3
(dp361
g9
Vhttp://www.reddit.com/.rss
p362
sg11
g12
sg13
Nsg14
g358
stRp363
sg36
g351
sg90
VThu, 14 May 2015 20:26:59 +0000
p364
sg92
(lp365
g94
aV*
asg95
Vhttp://www.reddit.com/r/TwoXChromosomes/comments/35zghk/i_had_an_abortion_at_27_weeks_the_house_20week/
p366
stRp367
ag1
(g2
g3
(dp368
S'summary_detail'
p369
g1
(g2
g3
(dp370
g9
Vhttp://www.reddit.com/.rss
p371
sg11
g53
sg13
Nsg14
V<table> <tr><td> <a href="http://www.reddit.com/r/movies/comments/35z06x/lonely_island_and_judd_apatow_movie/"><img alt="Lonely Island and Judd Apatow Movie" src="http://b.thumbs.redditmedia.com/OuhGsLwHc2_4uG-iJXsCUc4mjv2cDfyPjCCPaH01GYk.jpg" title="Lonely Island and Judd Apatow Movie" /></a> </td><td> submitted by <a href="http://www.reddit.com/user/westmontblvd"> westmontblvd </a> to <a href="http://www.reddit.com/r/movies/"> movies</a> <br /> <a href="http://i.imgur.com/R8UnBcU.jpg">[link]</a> <a href="http://www.reddit.com/r/movies/comments/35z06x/lonely_island_and_judd_apatow_movie/">[804 comments]</a> </td></tr></table>
p372
stRp373
sg18
(lp374
g1
(g2
g3
(dp375
g21
Vhttp://www.reddit.com/r/movies/comments/35z06x/lonely_island_and_judd_apatow_movie/
p376
sg11
g23
sg24
g25
stRp377
asg72
g73
((I2015
I5
I14
I18
I20
I42
I3
I134
I0
t(dtRp378
sg75
(lp379
g1
(g2
g3
(dp380
g78
Vmovies
p381
sg80
Nsg81
NstRp382
asg35
VLonely Island and Judd Apatow Movie
p383
sg114
(lp384
(dp385
S'url'
p386
Vhttp://b.thumbs.redditmedia.com/OuhGsLwHc2_4uG-iJXsCUc4mjv2cDfyPjCCPaH01GYk.jpg
p387
sasg84
g372
sg85
I00
sS'title_detail'
p388
g1
(g2
g3
(dp389
g9
Vhttp://www.reddit.com/.rss
p390
sg11
g12
sg13
Nsg14
g383
stRp391
sg21
V
sg36
g376
sg90
VThu, 14 May 2015 18:20:42 +0000
p392
sg92
(lp393
g94
aV*
asg95
Vhttp://www.reddit.com/r/movies/comments/35z06x/lonely_island_and_judd_apatow_movie/
p394
stRp395
ag1
(g2
g3
(dp396
S'summary_detail'
p397
g1
(g2
g3
(dp398
g9
Vhttp://www.reddit.com/.rss
p399
sg11
g53
sg13
Nsg14
V<table> <tr><td> <a href="http://www.reddit.com/r/sports/comments/35yqqy/discovery_channel_with_the_tweet_of_the_year/"><img alt="Discovery Channel with the tweet of the year. Makes me wonder if Penguins are happier in Bermuda or Bentgrass." src="http://b.thumbs.redditmedia.com/gP1Um-Hwl00umK_8s3EYkBwPWJ3CjT6zU8Lz8pOgszQ.jpg" title="Discovery Channel with the tweet of the year. Makes me wonder if Penguins are happier in Bermuda or Bentgrass." /></a> </td><td> submitted by <a href="http://www.reddit.com/user/kcm26"> kcm26 </a> to <a href="http://www.reddit.com/r/sports/"> sports</a> <br /> <a href="https://pbs.twimg.com/media/CE-xFH3UgAAiCbH.jpg:large">[link]</a> <a href="http://www.reddit.com/r/sports/comments/35yqqy/discovery_channel_with_the_tweet_of_the_year/">[726 comments]</a> </td></tr></table>
p400
stRp401
sg18
(lp402
g1
(g2
g3
(dp403
g21
Vhttp://www.reddit.com/r/sports/comments/35yqqy/discovery_channel_with_the_tweet_of_the_year/
p404
sg11
g23
sg24
g25
stRp405
asg72
g73
((I2015
I5
I14
I17
I7
I26
I3
I134
I0
t(dtRp406
sg75
(lp407
g1
(g2
g3
(dp408
g78
Vsports
p409
sg80
Nsg81
NstRp410
asg35
VDiscovery Channel with the tweet of the year. Makes me wonder if Penguins are happier in Bermuda or Bentgrass.
p411
sg114
(lp412
(dp413
S'url'
p414
Vhttp://b.thumbs.redditmedia.com/gP1Um-Hwl00umK_8s3EYkBwPWJ3CjT6zU8Lz8pOgszQ.jpg
p415
sasg84
g400
sg85
I00
sS'title_detail'
p416
g1
(g2
g3
(dp417
g9
Vhttp://www.reddit.com/.rss
p418
sg11
g12
sg13
Nsg14
g411
stRp419
sg21
V
sg36
g404
sg90
VThu, 14 May 2015 17:07:26 +0000
p420
sg92
(lp421
g94
aV*
asg95
Vhttp://www.reddit.com/r/sports/comments/35yqqy/discovery_channel_with_the_tweet_of_the_year/
p422
stRp423
ag1
(g2
g3
(dp424
S'summary_detail'
p425
g1
(g2
g3
(dp426
g9
Vhttp://www.reddit.com/.rss
p427
sg11
g53
sg13
Nsg14
Vsubmitted by <a href="http://www.reddit.com/user/PkZarayis"> PkZarayis </a> to <a href="http://www.reddit.com/r/Music/"> Music</a> <br /> <a href="http://youtu.be/AHbRxKbHFTA">[link]</a> <a href="http://www.reddit.com/r/Music/comments/35zq6w/motion_city_soundtrack_everything_is_alright/">[261 comments]</a>
p428
stRp429
sg18
(lp430
g1
(g2
g3
(dp431
g21
Vhttp://www.reddit.com/r/Music/comments/35zq6w/motion_city_soundtrack_everything_is_alright/
p432
sg11
g23
sg24
g25
stRp433
asg72
g73
((I2015
I5
I14
I21
I39
I40
I3
I134
I0
t(dtRp434
sg75
(lp435
g1
(g2
g3
(dp436
g78
VMusic
p437
sg80
Nsg81
NstRp438
asg35
VMotion City Soundtrack - Everything is Alright [Indie Pop-Punk]
p439
sg84
g428
sg85
I00
sS'title_detail'
p440
g1
(g2
g3
(dp441
g9
Vhttp://www.reddit.com/.rss
p442
sg11
g12
sg13
Nsg14
g439
stRp443
sg36
g432
sg90
VThu, 14 May 2015 21:39:40 +0000
p444
sg92
(lp445
g94
aV*
asg95
Vhttp://www.reddit.com/r/Music/comments/35zq6w/motion_city_soundtrack_everything_is_alright/
p446
stRp447
ag1
(g2
g3
(dp448
S'summary_detail'
p449
g1
(g2
g3
(dp450
g9
Vhttp://www.reddit.com/.rss
p451
sg11
g53
sg13
Nsg14
Vsubmitted by <a href="http://www.reddit.com/user/throwpillo"> throwpillo </a> to <a href="http://www.reddit.com/r/Showerthoughts/"> Showerthoughts</a> <br /> <a href="http://www.reddit.com/r/Showerthoughts/comments/35ylcq/cowboys_that_ride_off_into_the_sunset_quickly_run/">[link]</a> <a href="http://www.reddit.com/r/Showerthoughts/comments/35ylcq/cowboys_that_ride_off_into_the_sunset_quickly_run/">[1185 comments]</a>
p452
stRp453
sg18
(lp454
g1
(g2
g3
(dp455
g21
Vhttp://www.reddit.com/r/Showerthoughts/comments/35ylcq/cowboys_that_ride_off_into_the_sunset_quickly_run/
p456
sg11
g23
sg24
g25
stRp457
asg72
g73
((I2015
I5
I14
I16
I25
I55
I3
I134
I0
t(dtRp458
sg75
(lp459
g1
(g2
g3
(dp460
g78
VShowerthoughts
p461
sg80
Nsg81
NstRp462
asg35
VCowboys that ride off into the sunset quickly run out of daylight and have to camp just outside of town. Probably should've just stayed put for the night instead of being all dramatic.
p463
sg84
g452
sg85
I00
sS'title_detail'
p464
g1
(g2
g3
(dp465
g9
Vhttp://www.reddit.com/.rss
p466
sg11
g12
sg13
Nsg14
g463
stRp467
sg36
g456
sg90
VThu, 14 May 2015 16:25:55 +0000
p468
sg92
(lp469
g94
aV*
asg95
Vhttp://www.reddit.com/r/Showerthoughts/comments/35ylcq/cowboys_that_ride_off_into_the_sunset_quickly_run/
p470
stRp471
ag1
(g2
g3
(dp472
S'summary_detail'
p473
g1
(g2
g3
(dp474
g9
Vhttp://www.reddit.com/.rss
p475
sg11
g53
sg13
Nsg14
V<table> <tr><td> <a href="http://www.reddit.com/r/food/comments/35yzpp/why_would_i_dirty_my_lobster_with_a_greasy_burger/"><img alt="Why would I dirty my lobster with a greasy burger when I could have a beautiful specimen such as this?" src="http://b.thumbs.redditmedia.com/ptVShHrxk8WMw7qE0728zPg6Jc_h7cKczrjAwtZaeGk.jpg" title="Why would I dirty my lobster with a greasy burger when I could have a beautiful specimen such as this?" /></a> </td><td> submitted by <a href="http://www.reddit.com/user/IdealIdealist"> IdealIdealist </a> to <a href="http://www.reddit.com/r/food/"> food</a> <br /> <a href="http://imgur.com/H3ZXc8y">[link]</a> <a href="http://www.reddit.com/r/food/comments/35yzpp/why_would_i_dirty_my_lobster_with_a_greasy_burger/">[466 comments]</a> </td></tr></table>
p476
stRp477
sg18
(lp478
g1
(g2
g3
(dp479
g21
Vhttp://www.reddit.com/r/food/comments/35yzpp/why_would_i_dirty_my_lobster_with_a_greasy_burger/
p480
sg11
g23
sg24
g25
stRp481
asg72
g73
((I2015
I5
I14
I18
I16
I56
I3
I134
I0
t(dtRp482
sg75
(lp483
g1
(g2
g3
(dp484
g78
Vfood
p485
sg80
Nsg81
NstRp486
asg35
VWhy would I dirty my lobster with a greasy burger when I could have a beautiful specimen such as this?
p487
sg114
(lp488
(dp489
S'url'
p490
Vhttp://b.thumbs.redditmedia.com/ptVShHrxk8WMw7qE0728zPg6Jc_h7cKczrjAwtZaeGk.jpg
p491
sasg84
g476
sg85
I00
sS'title_detail'
p492
g1
(g2
g3
(dp493
g9
Vhttp://www.reddit.com/.rss
p494
sg11
g12
sg13
Nsg14
g487
stRp495
sg21
V
sg36
g480
sg90
VThu, 14 May 2015 18:16:56 +0000
p496
sg92
(lp497
g94
aV*
asg95
Vhttp://www.reddit.com/r/food/comments/35yzpp/why_would_i_dirty_my_lobster_with_a_greasy_burger/
p498
stRp499
ag1
(g2
g3
(dp500
S'summary_detail'
p501
g1
(g2
g3
(dp502
g9
Vhttp://www.reddit.com/.rss
p503
sg11
g53
sg13
Nsg14
Vsubmitted by <a href="http://www.reddit.com/user/MrsBeann"> MrsBeann </a> to <a href="http://www.reddit.com/r/AskReddit/"> AskReddit</a> <br /> <a href="http://www.reddit.com/r/AskReddit/comments/35zrmt/whats_the_weirdest_lie_your_parents_ever_told_you/">[link]</a> <a href="http://www.reddit.com/r/AskReddit/comments/35zrmt/whats_the_weirdest_lie_your_parents_ever_told_you/">[1980 comments]</a>
p504
stRp505
sg18
(lp506
g1
(g2
g3
(dp507
g21
Vhttp://www.reddit.com/r/AskReddit/comments/35zrmt/whats_the_weirdest_lie_your_parents_ever_told_you/
p508
sg11
g23
sg24
g25
stRp509
asg72
g73
((I2015
I5
I14
I21
I50
I48
I3
I134
I0
t(dtRp510
sg75
(lp511
g1
(g2
g3
(dp512
g78
VAskReddit
p513
sg80
Nsg81
NstRp514
asg35
VWhat's the weirdest lie your parents ever told you?
p515
sg84
g504
sg85
I00
sS'title_detail'
p516
g1
(g2
g3
(dp517
g9
Vhttp://www.reddit.com/.rss
p518
sg11
g12
sg13
Nsg14
g515
stRp519
sg36
g508
sg90
VThu, 14 May 2015 21:50:48 +0000
p520
sg92
(lp521
g94
aV*
asg95
Vhttp://www.reddit.com/r/AskReddit/comments/35zrmt/whats_the_weirdest_lie_your_parents_ever_told_you/
p522
stRp523
ag1
(g2
g3
(dp524
S'summary_detail'
p525
g1
(g2
g3
(dp526
g9
Vhttp://www.reddit.com/.rss
p527
sg11
g53
sg13
Nsg14
V<!-- SC_OFF --><div class="md"><p>Does the army just march up and tell the president he's gone and just take over or is there a lot more to it than that?</p> </div><!-- SC_ON --> submitted by <a href="http://www.reddit.com/user/Ah_You_So_Stupid"> Ah_You_So_Stupid </a> to <a href="http://www.reddit.com/r/explainlikeimfive/"> explainlikeimfive</a> <br /> <a href="http://www.reddit.com/r/explainlikeimfive/comments/35zcc7/eli5how_exactly_does_a_military_coup_work/">[link]</a> <a href="http://www.reddit.com/r/explainlikeimfive/comments/35zcc7/eli5how_exactly_does_a_military_coup_work/">[667 comments]</a>
p528
stRp529
sg18
(lp530
g1
(g2
g3
(dp531
g21
Vhttp://www.reddit.com/r/explainlikeimfive/comments/35zcc7/eli5how_exactly_does_a_military_coup_work/
p532
sg11
g23
sg24
g25
stRp533
asg72
g73
((I2015
I5
I14
I19
I56
I19
I3
I134
I0
t(dtRp534
sg75
(lp535
g1
(g2
g3
(dp536
g78
Vexplainlikeimfive
p537
sg80
Nsg81
NstRp538
asg35
VELI5:How exactly does a military coup work?
p539
sg84
g528
sg85
I00
sS'title_detail'
p540
g1
(g2
g3
(dp541
g9
Vhttp://www.reddit.com/.rss
p542
sg11
g12
sg13
Nsg14
g539
stRp543
sg36
g532
sg90
VThu, 14 May 2015 19:56:19 +0000
p544
sg92
(lp545
g94
aV*
asg95
Vhttp://www.reddit.com/r/explainlikeimfive/comments/35zcc7/eli5how_exactly_does_a_military_coup_work/
p546
stRp547
ag1
(g2
g3
(dp548
S'summary_detail'
p549
g1
(g2
g3
(dp550
g9
Vhttp://www.reddit.com/.rss
p551
sg11
g53
sg13
Nsg14
V<table> <tr><td> <a href="http://www.reddit.com/r/photoshopbattles/comments/35z8se/psbattle_a_bad_hulk_cosplay/"><img alt="PsBattle: A bad Hulk cosplay" src="http://b.thumbs.redditmedia.com/NDCXw9L60Shj2ETLyslUCybM0hoBR2y-7rfE2dJjI8k.jpg" title="PsBattle: A bad Hulk cosplay" /></a> </td><td> submitted by <a href="http://www.reddit.com/user/GallowBoob"> GallowBoob </a> to <a href="http://www.reddit.com/r/photoshopbattles/"> photoshopbattles</a> <br /> <a href="http://i.imgur.com/mXw0aXS.jpg">[link]</a> <a href="http://www.reddit.com/r/photoshopbattles/comments/35z8se/psbattle_a_bad_hulk_cosplay/">[106 comments]</a> </td></tr></table>
p552
stRp553
sg18
(lp554
g1
(g2
g3
(dp555
g21
Vhttp://www.reddit.com/r/photoshopbattles/comments/35z8se/psbattle_a_bad_hulk_cosplay/
p556
sg11
g23
sg24
g25
stRp557
asg72
g73
((I2015
I5
I14
I19
I28
I22
I3
I134
I0
t(dtRp558
sg75
(lp559
g1
(g2
g3
(dp560
g78
Vphotoshopbattles
p561
sg80
Nsg81
NstRp562
asg35
VPsBattle: A bad Hulk cosplay
p563
sg114
(lp564
(dp565
S'url'
p566
Vhttp://b.thumbs.redditmedia.com/NDCXw9L60Shj2ETLyslUCybM0hoBR2y-7rfE2dJjI8k.jpg
p567
sasg84
g552
sg85
I00
sS'title_detail'
p568
g1
(g2
g3
(dp569
g9
Vhttp://www.reddit.com/.rss
p570
sg11
g12
sg13
Nsg14
g563
stRp571
sg21
V
sg36
g556
sg90
VThu, 14 May 2015 19:28:22 +0000
p572
sg92
(lp573
g94
aV*
asg95
Vhttp://www.reddit.com/r/photoshopbattles/comments/35z8se/psbattle_a_bad_hulk_cosplay/
p574
stRp575
ag1
(g2
g3
(dp576
S'summary_detail'
p577
g1
(g2
g3
(dp578
g9
Vhttp://www.reddit.com/.rss
p579
sg11
g53
sg13
Nsg14
V<!-- SC_OFF --><div class="md"><p>So for those of you who don't know, there is a Google Survey app for android you can download where you get to take surveys. After completing the surveys, you receive anywhere from $0.10 to $2.00 for doing a survey to use on the Google Play Store. </p> <p>Now with these surveys I have always lied. The more I'd fabricate these answers, the more &quot;valuable&quot; it makes my opinion. The more valuable my opinion is, the more surveys I get which means more play store credit. If I had been honest, I would not have gotten any surveys much like when I told my friend about the app and never got a survey after his first one. So far, I've received about $35 in Play Store Credit by doing these surveys. </p> <p>So this morning, I got a Google Survey on my tablet. It was a 3 question survey. The survey asked if I had ever been to a water park called Kelp Water Parks. I said yes. Then it asked what my favorite slide was. I just chose a random name of a ride and proceeded to the next question.</p> <p>Only then did I find out it wasn't a survey, but it was designed to fish out people like me. People who lie on their surveys. It told me that the Kelp Water Park didn't exist. Google then proceeded to scold me saying lying is a bad thing and it will most likely not consider me for future surveys. Google caught me lying and left me feeling like I lied to my own father. </p> <p>TLDR: Lied to Google. Received a virtual spanking over their survey app. </p> </div><!-- SC_ON --> submitted by <a href="http://www.reddit.com/user/honeybadger21"> honeybadger21 </a> to <a href="http://www.reddit.com/r/tifu/"> tifu</a> <br /> <a href="http://www.reddit.com/r/tifu/comments/35yim3/tifu_by_lying_on_a_google_survey/">[link]</a> <a href="http://www.reddit.com/r/tifu/comments/35yim3/tifu_by_lying_on_a_google_survey/">[1058 comments]</a>
p580
stRp581
sg18
(lp582
g1
(g2
g3
(dp583
g21
Vhttp://www.reddit.com/r/tifu/comments/35yim3/tifu_by_lying_on_a_google_survey/
p584
sg11
g23
sg24
g25
stRp585
asg72
g73
((I2015
I5
I14
I16
I4
I48
I3
I134
I0
t(dtRp586
sg75
(lp587
g1
(g2
g3
(dp588
g78
Vtifu
p589
sg80
Nsg81
NstRp590
asg35
VTIFU by lying on a Google Survey
p591
sg84
g580
sg85
I00
sS'title_detail'
p592
g1
(g2
g3
(dp593
g9
Vhttp://www.reddit.com/.rss
p594
sg11
g12
sg13
Nsg14
g591
stRp595
sg36
g584
sg90
VThu, 14 May 2015 16:04:48 +0000
p596
sg92
(lp597
g94
aV*
asg95
Vhttp://www.reddit.com/r/tifu/comments/35yim3/tifu_by_lying_on_a_google_survey/
p598
stRp599
ag1
(g2
g3
(dp600
S'summary_detail'
p601
g1
(g2
g3
(dp602
g9
Vhttp://www.reddit.com/.rss
p603
sg11
g53
sg13
Nsg14
V<table> <tr><td> <a href="http://www.reddit.com/r/television/comments/35zis9/rick_and_morty_couch_gag_will_appear_before_this/"><img alt="&quot;Rick and Morty&quot; couch gag will appear before this week's &quot;Simpsons&quot;" src="http://b.thumbs.redditmedia.com/iMLyd7RosXCmhCfAph6McN-6OAt2j45h-1j_bwRSARw.jpg" title="&quot;Rick and Morty&quot; couch gag will appear before this week's &quot;Simpsons&quot;" /></a> </td><td> submitted by <a href="http://www.reddit.com/user/PanachelessNihilist"> PanachelessNihilist </a> to <a href="http://www.reddit.com/r/television/"> television</a> <br /> <a href="https://www.youtube.com/watch?t=32&amp;v=7ecYoSvGO60">[link]</a> <a href="http://www.reddit.com/r/television/comments/35zis9/rick_and_morty_couch_gag_will_appear_before_this/">[178 comments]</a> </td></tr></table>
p604
stRp605
sg18
(lp606
g1
(g2
g3
(dp607
g21
Vhttp://www.reddit.com/r/television/comments/35zis9/rick_and_morty_couch_gag_will_appear_before_this/
p608
sg11
g23
sg24
g25
stRp609
asg72
g73
((I2015
I5
I14
I20
I43
I20
I3
I134
I0
t(dtRp610
sg75
(lp611
g1
(g2
g3
(dp612
g78
Vtelevision
p613
sg80
Nsg81
NstRp614
asg35
V"Rick and Morty" couch gag will appear before this week's "Simpsons"
p615
sg114
(lp616
(dp617
S'url'
p618
Vhttp://b.thumbs.redditmedia.com/iMLyd7RosXCmhCfAph6McN-6OAt2j45h-1j_bwRSARw.jpg
p619
sasg84
g604
sg85
I00
sS'title_detail'
p620
g1
(g2
g3
(dp621
g9
Vhttp://www.reddit.com/.rss
p622
sg11
g12
sg13
Nsg14
g615
stRp623
sg21
V
sg36
g608
sg90
VThu, 14 May 2015 20:43:20 +0000
p624
sg92
(lp625
g94
aV*
asg95
Vhttp://www.reddit.com/r/television/comments/35zis9/rick_and_morty_couch_gag_will_appear_before_this/
p626
stRp627
ag1
(g2
g3
(dp628
S'summary_detail'
p629
g1
(g2
g3
(dp630
g9
Vhttp://www.reddit.com/.rss
p631
sg11
g53
sg13
Nsg14
Vsubmitted by <a href="http://www.reddit.com/user/gassmaster"> gassmaster </a> to <a href="http://www.reddit.com/r/DIY/"> DIY</a> <br /> <a href="http://imgur.com/a/9xDKl">[link]</a> <a href="http://www.reddit.com/r/DIY/comments/35zfvl/refinishing_a_hardwood_floor_on_a_1930_colonial/">[178 comments]</a>
p632
stRp633
sg18
(lp634
g1
(g2
g3
(dp635
g21
Vhttp://www.reddit.com/r/DIY/comments/35zfvl/refinishing_a_hardwood_floor_on_a_1930_colonial/
p636
sg11
g23
sg24
g25
stRp637
asg72
g73
((I2015
I5
I14
I20
I23
I1
I3
I134
I0
t(dtRp638
sg75
(lp639
g1
(g2
g3
(dp640
g78
VDIY
p641
sg80
Nsg81
NstRp642
asg35
VRefinishing a Hardwood Floor on a 1930 Colonial house. (White oak) (74pics)
p643
sg84
g632
sg85
I00
sS'title_detail'
p644
g1
(g2
g3
(dp645
g9
Vhttp://www.reddit.com/.rss
p646
sg11
g12
sg13
Nsg14
g643
stRp647
sg36
g636
sg90
VThu, 14 May 2015 20:23:01 +0000
p648
sg92
(lp649
g94
aV*
asg95
Vhttp://www.reddit.com/r/DIY/comments/35zfvl/refinishing_a_hardwood_floor_on_a_1930_colonial/
p650
stRp651
ag1
(g2
g3
(dp652
S'summary_detail'
p653
g1
(g2
g3
(dp654
g9
Vhttp://www.reddit.com/.rss
p655
sg11
g53
sg13
Nsg14
V<table> <tr><td> <a href="http://www.reddit.com/r/nottheonion/comments/35ydig/antigay_site_forgets_to_register_domain_gets/"><img alt="Anti-Gay Site Forgets To Register Domain, Gets Redirected To Gay Porn" src="http://b.thumbs.redditmedia.com/5FrP-LhwGn8cK_8K8poy7QBzp4YewYbhZvcm5sgS5LU.jpg" title="Anti-Gay Site Forgets To Register Domain, Gets Redirected To Gay Porn" /></a> </td><td> submitted by <a href="http://www.reddit.com/user/newsjunkienyc"> newsjunkienyc </a> to <a href="http://www.reddit.com/r/nottheonion/"> nottheonion</a> <br /> <a href="http://www.vocativ.com/news/192387/anti-gay-site-redirected-to-gay-porn-carolina-rebellion/">[link]</a> <a href="http://www.reddit.com/r/nottheonion/comments/35ydig/antigay_site_forgets_to_register_domain_gets/">[428 comments]</a> </td></tr></table>
p656
stRp657
sg18
(lp658
g1
(g2
g3
(dp659
g21
Vhttp://www.reddit.com/r/nottheonion/comments/35ydig/antigay_site_forgets_to_register_domain_gets/
p660
sg11
g23
sg24
g25
stRp661
asg72
g73
((I2015
I5
I14
I15
I26
I5
I3
I134
I0
t(dtRp662
sg75
(lp663
g1
(g2
g3
(dp664
g78
Vnottheonion
p665
sg80
Nsg81
NstRp666
asg35
VAnti-Gay Site Forgets To Register Domain, Gets Redirected To Gay Porn
p667
sg114
(lp668
(dp669
S'url'
p670
Vhttp://b.thumbs.redditmedia.com/5FrP-LhwGn8cK_8K8poy7QBzp4YewYbhZvcm5sgS5LU.jpg
p671
sasg84
g656
sg85
I00
sS'title_detail'
p672
g1
(g2
g3
(dp673
g9
Vhttp://www.reddit.com/.rss
p674
sg11
g12
sg13
Nsg14
g667
stRp675
sg21
V
sg36
g660
sg90
VThu, 14 May 2015 15:26:05 +0000
p676
sg92
(lp677
g94
aV*
asg95
Vhttp://www.reddit.com/r/nottheonion/comments/35ydig/antigay_site_forgets_to_register_domain_gets/
p678
stRp679
ag1
(g2
g3
(dp680
S'summary_detail'
p681
g1
(g2
g3
(dp682
g9
Vhttp://www.reddit.com/.rss
p683
sg11
g53
sg13
Nsg14
V<table> <tr><td> <a href="http://www.reddit.com/r/UpliftingNews/comments/35ychx/an_army_veteran_with_cancer_called_911_because_he/"><img alt="An army veteran with cancer called 911 because he was hungry and couldn't move. Dispatcher and police deliver groceries to him personally." src="http://b.thumbs.redditmedia.com/A-fXF9WdYv2LFQG5siDgZf_bjQ6Jy1nEiaug7zOubmA.jpg" title="An army veteran with cancer called 911 because he was hungry and couldn't move. Dispatcher and police deliver groceries to him personally." /></a> </td><td> submitted by <a href="http://www.reddit.com/user/where_ewaldo"> where_ewaldo </a> to <a href="http://www.reddit.com/r/UpliftingNews/"> UpliftingNews</a> <br /> <a href="http://www.washingtonpost.com/news/morning-mix/wp/2015/05/14/this-81-year-old-army-veteran-called-911-because-he-was-hungry/?tid=sm_fb">[link]</a> <a href="http://www.reddit.com/r/UpliftingNews/comments/35ychx/an_army_veteran_with_cancer_called_911_because_he/">[510 comments]</a> </td></tr></table>
p684
stRp685
sg18
(lp686
g1
(g2
g3
(dp687
g21
Vhttp://www.reddit.com/r/UpliftingNews/comments/35ychx/an_army_veteran_with_cancer_called_911_because_he/
p688
sg11
g23
sg24
g25
stRp689
asg72
g73
((I2015
I5
I14
I15
I18
I10
I3
I134
I0
t(dtRp690
sg75
(lp691
g1
(g2
g3
(dp692
g78
VUpliftingNews
p693
sg80
Nsg81
NstRp694
asg35
VAn army veteran with cancer called 911 because he was hungry and couldn't move. Dispatcher and police deliver groceries to him personally.
p695
sg114
(lp696
(dp697
S'url'
p698
Vhttp://b.thumbs.redditmedia.com/A-fXF9WdYv2LFQG5siDgZf_bjQ6Jy1nEiaug7zOubmA.jpg
p699
sasg84
g684
sg85
I00
sS'title_detail'
p700
g1
(g2
g3
(dp701
g9
Vhttp://www.reddit.com/.rss
p702
sg11
g12
sg13
Nsg14
g695
stRp703
sg21
V
sg36
g688
sg90
VThu, 14 May 2015 15:18:10 +0000
p704
sg92
(lp705
g94
aV*
asg95
Vhttp://www.reddit.com/r/UpliftingNews/comments/35ychx/an_army_veteran_with_cancer_called_911_because_he/
p706
stRp707
ag1
(g2
g3
(dp708
S'summary_detail'
p709
g1
(g2
g3
(dp710
g9
Vhttp://www.reddit.com/.rss
p711
sg11
g53
sg13
Nsg14
Vsubmitted by <a href="http://www.reddit.com/user/mozzaman"> mozzaman </a> to <a href="http://www.reddit.com/r/news/"> news</a> <br /> <a href="https://firstlook.org/theintercept/2015/05/13/governments-crackdown-leaks-faces-new-challenges/">[link]</a> <a href="http://www.reddit.com/r/news/comments/35y0ul/obamas_war_on_leaks_faces_backlash_in_court_the/">[1909 comments]</a>
p712
stRp713
sg18
(lp714
g1
(g2
g3
(dp715
g21
Vhttp://www.reddit.com/r/news/comments/35y0ul/obamas_war_on_leaks_faces_backlash_in_court_the/
p716
sg11
g23
sg24
g25
stRp717
asg72
g73
((I2015
I5
I14
I13
I42
I17
I3
I134
I0
t(dtRp718
sg75
(lp719
g1
(g2
g3
(dp720
g78
Vnews
p721
sg80
Nsg81
NstRp722
asg35
VObama's War on Leaks Faces Backlash in Court: \u201cThe Government\u2019s Insistence that Whistleblowing and Accountability Equate to Spying is Coming Under Increasing Scrutiny, Even Mockery.\u201d [The Intercept]
p723
sg84
g712
sg85
I00
sS'title_detail'
p724
g1
(g2
g3
(dp725
g9
Vhttp://www.reddit.com/.rss
p726
sg11
g12
sg13
Nsg14
g723
stRp727
sg36
g716
sg90
VThu, 14 May 2015 13:42:17 +0000
p728
sg92
(lp729
g94
aV*
asg95
Vhttp://www.reddit.com/r/news/comments/35y0ul/obamas_war_on_leaks_faces_backlash_in_court_the/
p730
stRp731
ag1
(g2
g3
(dp732
S'summary_detail'
p733
g1
(g2
g3
(dp734
S'base'
p735
Vhttp://www.reddit.com/.rss
p736
sS'type'
p737
Vtext/html
p738
sS'value'
p739
Vsubmitted by <a href="http://www.reddit.com/user/ethical_rhyme"> ethical_rhyme </a> to <a href="http://www.reddit.com/r/DIY/"> DIY</a> <br /> <a href="http://imgur.com/a/Hnyk5">[link]</a> <a href="http://www.reddit.com/r/DIY/comments/35wjku/i_made_5000_prom_shoes_for_my_sister_for_less/">[933 comments]</a>
p740
sS'language'
p741
NstRp742
sS'links'
p743
(lp744
g1
(g2
g3
(dp745
S'href'
p746
Vhttp://www.reddit.com/r/DIY/comments/35wjku/i_made_5000_prom_shoes_for_my_sister_for_less/
p747
sg737
Vtext/html
p748
sS'rel'
p749
Valternate
p750
stRp751
asS'published_parsed'
p752
g73
((I2015
I5
I14
I2
I38
I9
I3
I134
I0
t(dtRp753
sS'title'
p754
VI made $5,000 prom shoes for my sister for less than $40 (x-post r/somethingimade)
p755
sS'tags'
p756
(lp757
g1
(g2
g3
(dp758
S'term'
p759
VDIY
p760
sS'scheme'
p761
NsS'label'
p762
NstRp763
asS'summary'
p764
g740
sS'guidislink'
p765
I00
sS'title_detail'
p766
g1
(g2
g3
(dp767
g735
Vhttp://www.reddit.com/.rss
p768
sg737
Vtext/plain
p769
sg739
g755
sg741
NstRp770
sS'link'
p771
g747
sS'published'
p772
VThu, 14 May 2015 02:38:09 +0000
p773
sS'canto_state'
p774
(lp775
Vreddit: the front page of the internet
p776
aV*
asS'id'
p777
Vhttp://www.reddit.com/r/DIY/comments/35wjku/i_made_5000_prom_shoes_for_my_sister_for_less/
p778
stRp779
ag1
(g2
g3
(dp780
S'summary_detail'
p781
g1
(g2
g3
(dp782
g735
Vhttp://www.reddit.com/.rss
p783
sg737
g738
sg739
Vsubmitted by <a href="http://www.reddit.com/user/tipsystatistic"> tipsystatistic </a> to <a href="http://www.reddit.com/r/news/"> news</a> <br /> <a href="http://www.scpr.org/programs/airtalk/2015/05/13/42830/debating-the-impact-of-companies-bottling-californ/">[link]</a> <a href="http://www.reddit.com/r/news/comments/35wc08/nestle_ceo_tim_brown_on_whether_hed_consider/">[1767 comments]</a>
p784
sg741
NstRp785
sg743
(lp786
g1
(g2
g3
(dp787
g746
Vhttp://www.reddit.com/r/news/comments/35wc08/nestle_ceo_tim_brown_on_whether_hed_consider/
p788
sg737
g748
sg749
g750
stRp789
asg752
g73
((I2015
I5
I14
I1
I30
I38
I3
I134
I0
t(dtRp790
sg754
VNestle CEO Tim Brown on whether he'd consider stopping bottling water in California: "Absolutely not. In fact, I'd increase it if I could."
p791
sg756
(lp792
g1
(g2
g3
(dp793
g759
Vnews
p794
sg761
Nsg762
NstRp795
asg764
g784
sg765
I00
sS'title_detail'
p796
g1
(g2
g3
(dp797
g735
Vhttp://www.reddit.com/.rss
p798
sg737
g769
sg739
g791
sg741
NstRp799
sg771
g788
sg772
VThu, 14 May 2015 01:30:38 +0000
p800
sg774
(lp801
g776
aV*
asg777
Vhttp://www.reddit.com/r/news/comments/35wc08/nestle_ceo_tim_brown_on_whether_hed_consider/
p802
stRp803
ag1
(g2
g3
(dp804
S'summary_detail'
p805
g1
(g2
g3
(dp806
g735
Vhttp://www.reddit.com/.rss
p807
sg737
g738
sg739
V<table> <tr><td> <a href="http://www.reddit.com/r/funny/comments/35wcgz/every_time_i_come_home_i_feel_like_im_going_to/"><img alt="Every time I come home I feel like I'm going to get stabbed ..." src="http://b.thumbs.redditmedia.com/jqS1I4nT0uy1cqZQSuMJ7GQOKO7C4rOsWfNKUtIFKGM.jpg" title="Every time I come home I feel like I'm going to get stabbed ..." /></a> </td><td> submitted by <a href="http://www.reddit.com/user/Sinc3rIT"> Sinc3rIT </a> to <a href="http://www.reddit.com/r/funny/"> funny</a> <br /> <a href="https://lh3.googleusercontent.com/-QDKUGYi0Se8/VVP4LepeQGI/AAAAAAAADII/g9qalkKO9D0/w537-h716-no/20150513_191922.jpg">[link]</a> <a href="http://www.reddit.com/r/funny/comments/35wcgz/every_time_i_come_home_i_feel_like_im_going_to/">[162 comments]</a> </td></tr></table>
p808
sg741
NstRp809
sg743
(lp810
g1
(g2
g3
(dp811
g746
Vhttp://www.reddit.com/r/funny/comments/35wcgz/every_time_i_come_home_i_feel_like_im_going_to/
p812
sg737
g748
sg749
g750
stRp813
asg752
g73
((I2015
I5
I14
I1
I34
I43
I3
I134
I0
t(dtRp814
sg754
VEvery time I come home I feel like I'm going to get stabbed ...
p815
sg756
(lp816
g1
(g2
g3
(dp817
g759
Vfunny
p818
sg761
Nsg762
NstRp819
asS'media_thumbnail'
p820
(lp821
(dp822
S'url'
p823
Vhttp://b.thumbs.redditmedia.com/jqS1I4nT0uy1cqZQSuMJ7GQOKO7C4rOsWfNKUtIFKGM.jpg
p824
sasg764
g808
sg765
I00
sS'title_detail'
p825
g1
(g2
g3
(dp826
g735
Vhttp://www.reddit.com/.rss
p827
sg737
g769
sg739
g815
sg741
NstRp828
sg746
V
sg771
g812
sg772
VThu, 14 May 2015 01:34:43 +0000
p829
sg774
(lp830
g776
aV*
asg777
Vhttp://www.reddit.com/r/funny/comments/35wcgz/every_time_i_come_home_i_feel_like_im_going_to/
p831
stRp832
ag1
(g2
g3
(dp833
S'summary_detail'
p834
g1
(g2
g3
(dp835
g735
Vhttp://www.reddit.com/.rss
p836
sg737
g738
sg739
V<table> <tr><td> <a href="http://www.reddit.com/r/aww/comments/35w4qz/i_just_moved_in_and_some_neighbors_came_by_to_say/"><img alt="I just moved in and some neighbors came by to say Hi." src="http://b.thumbs.redditmedia.com/czTsMctroJFqVQxX6Hbr5Swnu1rVLZfZo7eN7cMSido.jpg" title="I just moved in and some neighbors came by to say Hi." /></a> </td><td> submitted by <a href="http://www.reddit.com/user/alphaBetayammaX"> alphaBetayammaX </a> to <a href="http://www.reddit.com/r/aww/"> aww</a> <br /> <a href="http://imgur.com/yA4JhNX">[link]</a> <a href="http://www.reddit.com/r/aww/comments/35w4qz/i_just_moved_in_and_some_neighbors_came_by_to_say/">[202 comments]</a> </td></tr></table>
p837
sg741
NstRp838
sg743
(lp839
g1
(g2
g3
(dp840
g746
Vhttp://www.reddit.com/r/aww/comments/35w4qz/i_just_moved_in_and_some_neighbors_came_by_to_say/
p841
sg737
g748
sg749
g750
stRp842
asg752
g73
((I2015
I5
I14
I0
I26
I8
I3
I134
I0
t(dtRp843
sg754
VI just moved in and some neighbors came by to say Hi.
p844
sg756
(lp845
g1
(g2
g3
(dp846
g759
Vaww
p847
sg761
Nsg762
NstRp848
asg820
(lp849
(dp850
S'url'
p851
Vhttp://b.thumbs.redditmedia.com/czTsMctroJFqVQxX6Hbr5Swnu1rVLZfZo7eN7cMSido.jpg
p852
sasg764
g837
sg765
I00
sS'title_detail'
p853
g1
(g2
g3
(dp854
g735
Vhttp://www.reddit.com/.rss
p855
sg737
g769
sg739
g844
sg741
NstRp856
sg746
V
sg771
g841
sg772
VThu, 14 May 2015 00:26:08 +0000
p857
sg774
(lp858
g776
aV*
asg777
Vhttp://www.reddit.com/r/aww/comments/35w4qz/i_just_moved_in_and_some_neighbors_came_by_to_say/
p859
stRp860
ag1
(g2
g3
(dp861
S'summary_detail'
p862
g1
(g2
g3
(dp863
g735
Vhttp://www.reddit.com/.rss
p864
sg737
g738
sg739
Vsubmitted by <a href="http://www.reddit.com/user/uncommon_redditor"> uncommon_redditor </a> to <a href="http://www.reddit.com/r/Showerthoughts/"> Showerthoughts</a> <br /> <a href="http://www.reddit.com/r/Showerthoughts/comments/35w9kx/tetris_taught_me_that_when_you_try_to_fit_in/">[link]</a> <a href="http://www.reddit.com/r/Showerthoughts/comments/35w9kx/tetris_taught_me_that_when_you_try_to_fit_in/">[266 comments]</a>
p865
sg741
NstRp866
sg743
(lp867
g1
(g2
g3
(dp868
g746
Vhttp://www.reddit.com/r/Showerthoughts/comments/35w9kx/tetris_taught_me_that_when_you_try_to_fit_in/
p869
sg737
g748
sg749
g750
stRp870
asg752
g73
((I2015
I5
I14
I1
I9
I27
I3
I134
I0
t(dtRp871
sg754
VTetris taught me that when you try to fit in you'll disappear.
p872
sg756
(lp873
g1
(g2
g3
(dp874
g759
VShowerthoughts
p875
sg761
Nsg762
NstRp876
asg764
g865
sg765
I00
sS'title_detail'
p877
g1
(g2
g3
(dp878
g735
Vhttp://www.reddit.com/.rss
p879
sg737
g769
sg739
g872
sg741
NstRp880
sg771
g869
sg772
VThu, 14 May 2015 01:09:27 +0000
p881
sg774
(lp882
g776
aV*
asg777
Vhttp://www.reddit.com/r/Showerthoughts/comments/35w9kx/tetris_taught_me_that_when_you_try_to_fit_in/
p883
stRp884
ag1
(g2
g3
(dp885
S'summary_detail'
p886
g1
(g2
g3
(dp887
g735
Vhttp://www.reddit.com/.rss
p888
sg737
g738
sg739
V<table> <tr><td> <a href="http://www.reddit.com/r/mildlyinteresting/comments/35vyp4/hit_a_tree_with_a_weed_whacker_here_it_is_10/"><img alt="Hit a tree with a weed whacker. Here it is 10 years later." src="http://a.thumbs.redditmedia.com/G1t_yRzQZj1d7ONJtLI0jrObee7Mau_8zEK7aeZW1U8.jpg" title="Hit a tree with a weed whacker. Here it is 10 years later." /></a> </td><td> submitted by <a href="http://www.reddit.com/user/ShartingGoose"> ShartingGoose </a> to <a href="http://www.reddit.com/r/mildlyinteresting/"> mildlyinteresting</a> <br /> <a href="http://i.imgur.com/JDJan5J.jpg">[link]</a> <a href="http://www.reddit.com/r/mildlyinteresting/comments/35vyp4/hit_a_tree_with_a_weed_whacker_here_it_is_10/">[331 comments]</a> </td></tr></table>
p889
sg741
NstRp890
sg743
(lp891
g1
(g2
g3
(dp892
g746
Vhttp://www.reddit.com/r/mildlyinteresting/comments/35vyp4/hit_a_tree_with_a_weed_whacker_here_it_is_10/
p893
sg737
g748
sg749
g750
stRp894
asg752
g73
((I2015
I5
I13
I23
I34
I6
I2
I133
I0
t(dtRp895
sg754
VHit a tree with a weed whacker. Here it is 10 years later.
p896
sg756
(lp897
g1
(g2
g3
(dp898
g759
Vmildlyinteresting
p899
sg761
Nsg762
NstRp900
asg820
(lp901
(dp902
S'url'
p903
Vhttp://a.thumbs.redditmedia.com/G1t_yRzQZj1d7ONJtLI0jrObee7Mau_8zEK7aeZW1U8.jpg
p904
sasg764
g889
sg765
I00
sS'title_detail'
p905
g1
(g2
g3
(dp906
g735
Vhttp://www.reddit.com/.rss
p907
sg737
g769
sg739
g896
sg741
NstRp908
sg746
V
sg771
g893
sg772
VWed, 13 May 2015 23:34:06 +0000
p909
sg774
(lp910
g776
aV*
asg777
Vhttp://www.reddit.com/r/mildlyinteresting/comments/35vyp4/hit_a_tree_with_a_weed_whacker_here_it_is_10/
p911
stRp912
ag1
(g2
g3
(dp913
S'summary_detail'
p914
g1
(g2
g3
(dp915
g735
Vhttp://www.reddit.com/.rss
p916
sg737
g738
sg739
V<table> <tr><td> <a href="http://www.reddit.com/r/pics/comments/35w6jb/a_long_time_ago_in_a_cul_de_sac_far_far_away/"><img alt="A Long Time Ago, In A Cul De Sac Far Far Away..." src="http://b.thumbs.redditmedia.com/PxqYhY76lpQ0JVNu4ckkysRw6OvdId2GP2OcZEQdZ4Y.jpg" title="A Long Time Ago, In A Cul De Sac Far Far Away..." /></a> </td><td> submitted by <a href="http://www.reddit.com/user/Saroekin"> Saroekin </a> to <a href="http://www.reddit.com/r/pics/"> pics</a> <br /> <a href="https://imgur.com/gallery/WdtoP">[link]</a> <a href="http://www.reddit.com/r/pics/comments/35w6jb/a_long_time_ago_in_a_cul_de_sac_far_far_away/">[83 comments]</a> </td></tr></table>
p917
sg741
NstRp918
sg743
(lp919
g1
(g2
g3
(dp920
g746
Vhttp://www.reddit.com/r/pics/comments/35w6jb/a_long_time_ago_in_a_cul_de_sac_far_far_away/
p921
sg737
g748
sg749
g750
stRp922
asg752
g73
((I2015
I5
I14
I0
I42
I57
I3
I134
I0
t(dtRp923
sg754
VA Long Time Ago, In A Cul De Sac Far Far Away...
p924
sg756
(lp925
g1
(g2
g3
(dp926
g759
Vpics
p927
sg761
Nsg762
NstRp928
asg820
(lp929
(dp930
S'url'
p931
Vhttp://b.thumbs.redditmedia.com/PxqYhY76lpQ0JVNu4ckkysRw6OvdId2GP2OcZEQdZ4Y.jpg
p932
sasg764
g917
sg765
I00
sS'title_detail'
p933
g1
(g2
g3
(dp934
g735
Vhttp://www.reddit.com/.rss
p935
sg737
g769
sg739
g924
sg741
NstRp936
sg746
V
sg771
g921
sg772
VThu, 14 May 2015 00:42:57 +0000
p937
sg774
(lp938
g776
aV*
asg777
Vhttp://www.reddit.com/r/pics/comments/35w6jb/a_long_time_ago_in_a_cul_de_sac_far_far_away/
p939
stRp940
ag1
(g2
g3
(dp941
S'summary_detail'
p942
g1
(g2
g3
(dp943
g735
Vhttp://www.reddit.com/.rss
p944
sg737
g738
sg739
Vsubmitted by <a href="http://www.reddit.com/user/angrycommie"> angrycommie </a> to <a href="http://www.reddit.com/r/worldnews/"> worldnews</a> <br /> <a href="http://www.upi.com/Top_News/World-News/2015/05/13/North-Korea-defense-chief-was-purged-maybe-not-executed-says-Seouls-spy-agency/1931431522581/">[link]</a> <a href="http://www.reddit.com/r/worldnews/comments/35vndi/north_korean_defense_chief_not_executed_south/">[868 comments]</a>
p945
sg741
NstRp946
sg743
(lp947
g1
(g2
g3
(dp948
g746
Vhttp://www.reddit.com/r/worldnews/comments/35vndi/north_korean_defense_chief_not_executed_south/
p949
sg737
g748
sg749
g750
stRp950
asg752
g73
((I2015
I5
I13
I22
I2
I35
I2
I133
I0
t(dtRp951
sg754
VNorth Korean defense chief NOT executed. South Korea redacts earlier statements about the execution.
p952
sg756
(lp953
g1
(g2
g3
(dp954
g759
Vworldnews
p955
sg761
Nsg762
NstRp956
asg764
g945
sg765
I00
sS'title_detail'
p957
g1
(g2
g3
(dp958
g735
Vhttp://www.reddit.com/.rss
p959
sg737
g769
sg739
g952
sg741
NstRp960
sg771
g949
sg772
VWed, 13 May 2015 22:02:35 +0000
p961
sg774
(lp962
g776
aV*
asg777
Vhttp://www.reddit.com/r/worldnews/comments/35vndi/north_korean_defense_chief_not_executed_south/
p963
stRp964
ag1
(g2
g3
(dp965
S'summary_detail'
p966
g1
(g2
g3
(dp967
g735
Vhttp://www.reddit.com/.rss
p968
sg737
g738
sg739
V<table> <tr><td> <a href="http://www.reddit.com/r/gifs/comments/35vl19/this_is_why_pandas_are_so_closely_watched_they/"><img alt="This is why Pandas are so closely watched. They are a danger to themselves" src="http://a.thumbs.redditmedia.com/jumLjIhxjOx_POcD3sJTOkoblWWLQquC4okAnrSE9A8.jpg" title="This is why Pandas are so closely watched. They are a danger to themselves" /></a> </td><td> submitted by <a href="http://www.reddit.com/user/lets_get_hyyerr"> lets_get_hyyerr </a> to <a href="http://www.reddit.com/r/gifs/"> gifs</a> <br /> <a href="http://i.imgur.com/0C9awje.gif">[link]</a> <a href="http://www.reddit.com/r/gifs/comments/35vl19/this_is_why_pandas_are_so_closely_watched_they/">[735 comments]</a> </td></tr></table>
p969
sg741
NstRp970
sg743
(lp971
g1
(g2
g3
(dp972
g746
Vhttp://www.reddit.com/r/gifs/comments/35vl19/this_is_why_pandas_are_so_closely_watched_they/
p973
sg737
g748
sg749
g750
stRp974
asg752
g73
((I2015
I5
I13
I21
I44
I12
I2
I133
I0
t(dtRp975
sg754
VThis is why Pandas are so closely watched. They are a danger to themselves
p976
sg756
(lp977
g1
(g2
g3
(dp978
g759
Vgifs
p979
sg761
Nsg762
NstRp980
asg820
(lp981
(dp982
S'url'
p983
Vhttp://a.thumbs.redditmedia.com/jumLjIhxjOx_POcD3sJTOkoblWWLQquC4okAnrSE9A8.jpg
p984
sasg764
g969
sg765
I00
sS'title_detail'
p985
g1
(g2
g3
(dp986
g735
Vhttp://www.reddit.com/.rss
p987
sg737
g769
sg739
g976
sg741
NstRp988
sg746
V
sg771
g973
sg772
VWed, 13 May 2015 21:44:12 +0000
p989
sg774
(lp990
g776
aV*
asg777
Vhttp://www.reddit.com/r/gifs/comments/35vl19/this_is_why_pandas_are_so_closely_watched_they/
p991
stRp992
ag1
(g2
g3
(dp993
S'summary_detail'
p994
g1
(g2
g3
(dp995
g735
Vhttp://www.reddit.com/.rss
p996
sg737
g738
sg739
V<table> <tr><td> <a href="http://www.reddit.com/r/gaming/comments/35vip5/office_boredom_is_real/"><img alt="Office boredom is real" src="http://b.thumbs.redditmedia.com/nK50Ch8agycLq4Uap8WBjwhQ0XFifkXNIICxOog2-mw.jpg" title="Office boredom is real" /></a> </td><td> submitted by <a href="http://www.reddit.com/user/egoslam"> egoslam </a> to <a href="http://www.reddit.com/r/gaming/"> gaming</a> <br /> <a href="http://i.imgur.com/hj9b3d3.png">[link]</a> <a href="http://www.reddit.com/r/gaming/comments/35vip5/office_boredom_is_real/">[362 comments]</a> </td></tr></table>
p997
sg741
NstRp998
sg743
(lp999
g1
(g2
g3
(dp1000
g746
Vhttp://www.reddit.com/r/gaming/comments/35vip5/office_boredom_is_real/
p1001
sg737
g748
sg749
g750
stRp1002
asg752
g73
((I2015
I5
I13
I21
I26
I40
I2
I133
I0
t(dtRp1003
sg754
VOffice boredom is real
p1004
sg756
(lp1005
g1
(g2
g3
(dp1006
g759
Vgaming
p1007
sg761
Nsg762
NstRp1008
asg820
(lp1009
(dp1010
S'url'
p1011
Vhttp://b.thumbs.redditmedia.com/nK50Ch8agycLq4Uap8WBjwhQ0XFifkXNIICxOog2-mw.jpg
p1012
sasg764
g997
sg765
I00
sS'title_detail'
p1013
g1
(g2
g3
(dp1014
g735
Vhttp://www.reddit.com/.rss
p1015
sg737
g769
sg739
g1004
sg741
NstRp1016
sg746
V
sg771
g1001
sg772
VWed, 13 May 2015 21:26:40 +0000
p1017
sg774
(lp1018
g776
aV*
asg777
Vhttp://www.reddit.com/r/gaming/comments/35vip5/office_boredom_is_real/
p1019
stRp1020
ag1
(g2
g3
(dp1021
S'summary_detail'
p1022
g1
(g2
g3
(dp1023
g735
Vhttp://www.reddit.com/.rss
p1024
sg737
g738
sg739
V<table> <tr><td> <a href="http://www.reddit.com/r/movies/comments/35vd9s/first_image_from_nick_parks_wallace_and_gromit/"><img alt="First Image from Nick Park's (Wallace and Gromit, Shaun the Sheep, Chicken Run) new movie 'Early Man'" src="http://b.thumbs.redditmedia.com/XRmZ2o4ctytiBk-H0PS7ZlcDBgcPgiI2YMoOJpcl-SA.jpg" title="First Image from Nick Park's (Wallace and Gromit, Shaun the Sheep, Chicken Run) new movie 'Early Man'" /></a> </td><td> submitted by <a href="http://www.reddit.com/user/filmfanatic5"> filmfanatic5 </a> to <a href="http://www.reddit.com/r/movies/"> movies</a> <br /> <a href="http://i.imgur.com/gypLY0X.jpg">[link]</a> <a href="http://www.reddit.com/r/movies/comments/35vd9s/first_image_from_nick_parks_wallace_and_gromit/">[239 comments]</a> </td></tr></table>
p1025
sg741
NstRp1026
sg743
(lp1027
g1
(g2
g3
(dp1028
g746
Vhttp://www.reddit.com/r/movies/comments/35vd9s/first_image_from_nick_parks_wallace_and_gromit/
p1029
sg737
g748
sg749
g750
stRp1030
asg752
g73
((I2015
I5
I13
I20
I46
I52
I2
I133
I0
t(dtRp1031
sg754
VFirst Image from Nick Park's (Wallace and Gromit, Shaun the Sheep, Chicken Run) new movie 'Early Man'
p1032
sg756
(lp1033
g1
(g2
g3
(dp1034
g759
Vmovies
p1035
sg761
Nsg762
NstRp1036
asg820
(lp1037
(dp1038
S'url'
p1039
Vhttp://b.thumbs.redditmedia.com/XRmZ2o4ctytiBk-H0PS7ZlcDBgcPgiI2YMoOJpcl-SA.jpg
p1040
sasg764
g1025
sg765
I00
sS'title_detail'
p1041
g1
(g2
g3
(dp1042
g735
Vhttp://www.reddit.com/.rss
p1043
sg737
g769
sg739
g1032
sg741
NstRp1044
sg746
V
sg771
g1029
sg772
VWed, 13 May 2015 20:46:52 +0000
p1045
sg774
(lp1046
g776
aV*
asg777
Vhttp://www.reddit.com/r/movies/comments/35vd9s/first_image_from_nick_parks_wallace_and_gromit/
p1047
stRp1048
ag1
(g2
g3
(dp1049
S'summary_detail'
p1050
g1
(g2
g3
(dp1051
g735
Vhttp://www.reddit.com/.rss
p1052
sg737
g738
sg739
V<table> <tr><td> <a href="http://www.reddit.com/r/todayilearned/comments/35vido/til_in_1850_42_of_free_negroes_in_charleston_sc/"><img alt="TIL In 1850 42% of Free Negroes in Charleston, SC owned slaves." src="http://b.thumbs.redditmedia.com/jJsNMaI1Bp45Cllsl6uKRlBgyNvrL8d-dCbfMM1B1nA.jpg" title="TIL In 1850 42% of Free Negroes in Charleston, SC owned slaves." /></a> </td><td> submitted by <a href="http://www.reddit.com/user/NorthShoreblacksheep"> NorthShoreblacksheep </a> to <a href="http://www.reddit.com/r/todayilearned/"> todayilearned</a> <br /> <a href="http://www.theroot.com/articles/history/2013/03/black_slave_owners_did_they_exist.3.html">[link]</a> <a href="http://www.reddit.com/r/todayilearned/comments/35vido/til_in_1850_42_of_free_negroes_in_charleston_sc/">[2197 comments]</a> </td></tr></table>
p1053
sg741
NstRp1054
sg743
(lp1055
g1
(g2
g3
(dp1056
g746
Vhttp://www.reddit.com/r/todayilearned/comments/35vido/til_in_1850_42_of_free_negroes_in_charleston_sc/
p1057
sg737
g748
sg749
g750
stRp1058
asg752
g73
((I2015
I5
I13
I21
I24
I6
I2
I133
I0
t(dtRp1059
sg754
VTIL In 1850 42\u005c% of Free Negroes in Charleston, SC owned slaves.
p1060
sg756
(lp1061
g1
(g2
g3
(dp1062
g759
Vtodayilearned
p1063
sg761
Nsg762
NstRp1064
asg820
(lp1065
(dp1066
S'url'
p1067
Vhttp://b.thumbs.redditmedia.com/jJsNMaI1Bp45Cllsl6uKRlBgyNvrL8d-dCbfMM1B1nA.jpg
p1068
sasg764
V<table> <tr><td> <a href="http://www.reddit.com/r/todayilearned/comments/35vido/til_in_1850_42_of_free_negroes_in_charleston_sc/"><img alt="TIL In 1850 42\u005c% of Free Negroes in Charleston, SC owned slaves." src="http://b.thumbs.redditmedia.com/jJsNMaI1Bp45Cllsl6uKRlBgyNvrL8d-dCbfMM1B1nA.jpg" title="TIL In 1850 42\u005c% of Free Negroes in Charleston, SC owned slaves." /></a> </td><td> submitted by <a href="http://www.reddit.com/user/NorthShoreblacksheep"> NorthShoreblacksheep </a> to <a href="http://www.reddit.com/r/todayilearned/"> todayilearned</a> <br /> <a href="http://www.theroot.com/articles/history/2013/03/black_slave_owners_did_they_exist.3.html">[link]</a> <a href="http://www.reddit.com/r/todayilearned/comments/35vido/til_in_1850_42_of_free_negroes_in_charleston_sc/">[2197 comments]</a> </td></tr></table>
p1069
sg765
I00
sS'title_detail'
p1070
g1
(g2
g3
(dp1071
g735
Vhttp://www.reddit.com/.rss
p1072
sg737
g769
sg739
VTIL In 1850 42% of Free Negroes in Charleston, SC owned slaves.
p1073
sg741
NstRp1074
sg746
V
sg771
g1057
sg772
VWed, 13 May 2015 21:24:06 +0000
p1075
sg774
(lp1076
g776
aV*
asg777
Vhttp://www.reddit.com/r/todayilearned/comments/35vido/til_in_1850_42_of_free_negroes_in_charleston_sc/
p1077
stRp1078
ag1
(g2
g3
(dp1079
S'summary_detail'
p1080
g1
(g2
g3
(dp1081
g735
Vhttp://www.reddit.com/.rss
p1082
sg737
g738
sg739
V<table> <tr><td> <a href="http://www.reddit.com/r/videos/comments/35v481/the_worst_video_game_ending_ever_mortal_kombat_4/"><img alt="The worst video game ending ever. Mortal Kombat 4" src="http://a.thumbs.redditmedia.com/Xqdp5_l3a7CaB1VVoP54cnjMuVko_G3oujLEkgfe2w4.jpg" title="The worst video game ending ever. Mortal Kombat 4" /></a> </td><td> submitted by <a href="http://www.reddit.com/user/Boogachoog"> Boogachoog </a> to <a href="http://www.reddit.com/r/videos/"> videos</a> <br /> <a href="https://www.youtube.com/watch?v=r-9AO3fOA88">[link]</a> <a href="http://www.reddit.com/r/videos/comments/35v481/the_worst_video_game_ending_ever_mortal_kombat_4/">[999 comments]</a> </td></tr></table>
p1083
sg741
NstRp1084
sg743
(lp1085
g1
(g2
g3
(dp1086
g746
Vhttp://www.reddit.com/r/videos/comments/35v481/the_worst_video_game_ending_ever_mortal_kombat_4/
p1087
sg737
g748
sg749
g750
stRp1088
asg752
g73
((I2015
I5
I13
I19
I38
I51
I2
I133
I0
t(dtRp1089
sg754
VThe worst video game ending ever. Mortal Kombat 4
p1090
sg756
(lp1091
g1
(g2
g3
(dp1092
g759
Vvideos
p1093
sg761
Nsg762
NstRp1094
asg820
(lp1095
(dp1096
S'url'
p1097
Vhttp://a.thumbs.redditmedia.com/Xqdp5_l3a7CaB1VVoP54cnjMuVko_G3oujLEkgfe2w4.jpg
p1098
sasg764
g1083
sg765
I00
sS'title_detail'
p1099
g1
(g2
g3
(dp1100
g735
Vhttp://www.reddit.com/.rss
p1101
sg737
g769
sg739
g1090
sg741
NstRp1102
sg746
V
sg771
g1087
sg772
VWed, 13 May 2015 19:38:51 +0000
p1103
sg774
(lp1104
g776
aV*
asg777
Vhttp://www.reddit.com/r/videos/comments/35v481/the_worst_video_game_ending_ever_mortal_kombat_4/
p1105
stRp1106
ag1
(g2
g3
(dp1107
S'summary_detail'
p1108
g1
(g2
g3
(dp1109
g735
Vhttp://www.reddit.com/.rss
p1110
sg737
g738
sg739
V<table> <tr><td> <a href="http://www.reddit.com/r/space/comments/35urii/the_earth_seen_from_the_farthest_distance_ever/"><img alt="The Earth seen from the farthest distance ever flown by a manned crew" src="http://a.thumbs.redditmedia.com/iP1CBNCFC5jUAqL5He-TQtBG244tJ8-yoGmSBw_-Z00.jpg" title="The Earth seen from the farthest distance ever flown by a manned crew" /></a> </td><td> submitted by <a href="http://www.reddit.com/user/saganistan"> saganistan </a> to <a href="http://www.reddit.com/r/space/"> space</a> <br /> <a href="http://www.lpi.usra.edu/resources/apollo/images/print/AS13/62/8903.jpg">[link]</a> <a href="http://www.reddit.com/r/space/comments/35urii/the_earth_seen_from_the_farthest_distance_ever/">[628 comments]</a> </td></tr></table>
p1111
sg741
NstRp1112
sg743
(lp1113
g1
(g2
g3
(dp1114
g746
Vhttp://www.reddit.com/r/space/comments/35urii/the_earth_seen_from_the_farthest_distance_ever/
p1115
sg737
g748
sg749
g750
stRp1116
asg752
g73
((I2015
I5
I13
I18
I1
I53
I2
I133
I0
t(dtRp1117
sg754
VThe Earth seen from the farthest distance ever flown by a manned crew
p1118
sg756
(lp1119
g1
(g2
g3
(dp1120
g759
Vspace
p1121
sg761
Nsg762
NstRp1122
asg820
(lp1123
(dp1124
S'url'
p1125
Vhttp://a.thumbs.redditmedia.com/iP1CBNCFC5jUAqL5He-TQtBG244tJ8-yoGmSBw_-Z00.jpg
p1126
sasg764
g1111
sg765
I00
sS'title_detail'
p1127
g1
(g2
g3
(dp1128
g735
Vhttp://www.reddit.com/.rss
p1129
sg737
g769
sg739
g1118
sg741
NstRp1130
sg746
V
sg771
g1115
sg772
VWed, 13 May 2015 11:01:53 -0700
p1131
sg774
(lp1132
g776
aV*
asg777
Vhttp://www.reddit.com/r/space/comments/35urii/the_earth_seen_from_the_farthest_distance_ever/
p1133
stRp1134
ag1
(g2
g3
(dp1135
S'summary_detail'
p1136
g1
(g2
g3
(dp1137
g735
Vhttp://www.reddit.com/.rss
p1138
sg737
g738
sg739
V<!-- SC_OFF --><div class="md"><p>In January of this year, we published our first <a href="http://www.redditblog.com/2015/01/reddits-first-transparency-report.html">transparency report</a>. In an effort to continue moving forward, we are changing how we respond to legal takedowns. In 2014, the vast majority of the <a href="https://www.reddit.com/wiki/transparency/2014#wiki_requests_for_removal_of_user_information">content reddit removed was for copyright and trademark reasons</a>, and 2015 is shaping up to be no different.</p> <p>Previously, when we removed content, we had to remove <strong>everything</strong>: link or self text, comments, all of it. When that happened, you might have come across a comments page that had nothing more than <a href="http://i.imgur.com/FSXEP66.png">this, surprised and censored Snoo</a>.</p> <p>There would be no reason, no information, just a surprised, censored Snoo. Not even a &quot;discuss this on reddit,&quot; which is rather un-reddit-like.</p> <p>Today, this changes. </p> <p><strong>Effective immediately,</strong> we're replacing the use of censored Snoo and moving to an approach that lets us preserve content that hasn't specifically been legally removed (like comment threads), and clearly identifies that we, as reddit, INC, removed the content in question.</p> <p>Let us pretend we have this post I made on reddit, suspiciously titled &quot;Test post, please ignore&quot;, as seen <a href="http://i.imgur.com/Fn5cQFu.png">in its original state here</a>, featuring one of my cats. Additionally, there is a comment on that post which is the first paragraph of this post.</p> <p>Should we receive a <a href="https://www.reddit.com/help/useragreement#section_dmca">valid DMCA request</a> for this content and deem it legally actionable, rather than being greeted with censored Snoo and no other relevant information, visitors to the post instead will now see <a href="http://i.imgur.com/gcwz5ks.png">a message stating that we, as admins of reddit.com, removed the content and a brief reason why</a>. </p> <p>A more detailed, although still abridged, version of the notice will be posted to <a href="http://www.reddit.com/r/ChillingEffects">/r/ChillingEffects</a>, and a sister post submitted to chillingeffects.org.</p> <p>You can view an example of a removed post and comment <a href="https://www.reddit.com/r/ChillingEffects/comments/35urvq/test_post_please_ignore/">here</a>.</p> <p>We hope these changes will provide more value to the community and provide as little interruption as possible when we receive these requests. We are committed to being as transparent as possible and empowering our users with more information.</p> <p>Finally, as this is a relatively major change, we'll be posting a variation of this post to multiple subreddits. Apologies if you see this announcement in a couple different shapes and sizes.</p> <p><sup>edits for grammar</sup></p> </div><!-- SC_ON --> submitted by <a href="http://www.reddit.com/user/weffey"> weffey </a> to <a href="http://www.reddit.com/r/announcements/"> announcements</a> <br /> <a href="http://www.reddit.com/r/announcements/comments/35uyil/transparency_is_important_to_us_and_today_we_take/">[link]</a> <a href="http://www.reddit.com/r/announcements/comments/35uyil/transparency_is_important_to_us_and_today_we_take/">[4032 comments]</a>
p1139
sg741
NstRp1140
sg743
(lp1141
g1
(g2
g3
(dp1142
g746
Vhttp://www.reddit.com/r/announcements/comments/35uyil/transparency_is_important_to_us_and_today_we_take/
p1143
sg737
g748
sg749
g750
stRp1144
asg752
g73
((I2015
I5
I13
I18
I55
I15
I2
I133
I0
t(dtRp1145
sg754
VTransparency is important to us, and today, we take another step forward.
p1146
sg756
(lp1147
g1
(g2
g3
(dp1148
g759
Vannouncements
p1149
sg761
Nsg762
NstRp1150
asg764
g1139
sg765
I00
sS'title_detail'
p1151
g1
(g2
g3
(dp1152
g735
Vhttp://www.reddit.com/.rss
p1153
sg737
g769
sg739
g1146
sg741
NstRp1154
sg771
g1143
sg772
VWed, 13 May 2015 11:55:15 -0700
p1155
sg774
(lp1156
g776
aV*
asg777
Vhttp://www.reddit.com/r/announcements/comments/35uyil/transparency_is_important_to_us_and_today_we_take/
p1157
stRp1158
asS'canto_update'
p1159
F1431663812.767381
sS'headers'
p1160
(dp1161
S'x-xss-protection'
p1162
S'1; mode=block'
p1163
sS'x-content-type-options'
p1164
S'nosniff'
p1165
sS'transfer-encoding'
p1166
S'chunked'
p1167
sS'set-cookie'
p1168
S'__cfduid=d6f248e6de3e763fd4f79cfa4ed5557ed1431663791; expires=Sat, 14-May-16 04:23:11 GMT; path=/; domain=.reddit.com; HttpOnly'
p1169
sS'cf-cache-status'
p1170
S'HIT'
p1171
sS'vary'
p1172
S'Accept-Encoding'
p1173
sS'x-moose'
p1174
S'majestic'
p1175
sS'connection'
p1176
S'close'
p1177
sS'x-ua-compatible'
p1178
S'IE=edge'
p1179
sS'cache-control'
p1180
S'no-cache'
p1181
sS'date'
p1182
S'Fri, 15 May 2015 04:23:11 GMT'
p1183
sS'x-frame-options'
p1184
S'SAMEORIGIN'
p1185
sS'server'
p1186
S'cloudflare-nginx'
p1187
sS'content-type'
p1188
S'text/xml; charset=UTF-8'
p1189
sS'cf-ray'
p1190
S'1e6c10eb8aaf115f-DFW'
p1191
ssS'version'
p1192
Vrss20
p1193
sg92
(lp1194
sg21
Vhttp://www.reddit.com/.rss
p1195
sS'namespaces'
p1196
(dp1197
S''
Vhttp://www.w3.org/2005/Atom
p1198
sS'media'
p1199
Vhttp://search.yahoo.com/mrss/
p1200
sS'dc'
p1201
Vhttp://purl.org/dc/elements/1.1/
p1202
ssS'canto_version'
p1203
(I0
I7
I10
tp1204
stRp1205
.